ARM GAS  C:\Users\EpikE\AppData\Local\Temp\cc0vK7Q5.s 			page 1


   1              		.syntax unified
   2              		.cpu cortex-m3
   3              		.fpu softvfp
   4              		.eabi_attribute 20, 1
   5              		.eabi_attribute 21, 1
   6              		.eabi_attribute 23, 3
   7              		.eabi_attribute 24, 1
   8              		.eabi_attribute 25, 1
   9              		.eabi_attribute 26, 1
  10              		.eabi_attribute 30, 1
  11              		.eabi_attribute 34, 1
  12              		.eabi_attribute 18, 4
  13              		.thumb
  14              		.file	"ADC_SAR.c"
  15              		.text
  16              	.Ltext0:
  17              		.cfi_sections	.debug_frame
  18              		.section	.text.ADC_SAR_CalcGain,"ax",%progbits
  19              		.align	2
  20              		.thumb
  21              		.thumb_func
  22              		.type	ADC_SAR_CalcGain, %function
  23              	ADC_SAR_CalcGain:
  24              	.LFB10:
  25              		.file 1 "Generated_Source\\PSoC5\\ADC_SAR.c"
   1:Generated_Source\PSoC5/ADC_SAR.c **** /*******************************************************************************
   2:Generated_Source\PSoC5/ADC_SAR.c **** * File Name: ADC_SAR.c
   3:Generated_Source\PSoC5/ADC_SAR.c **** * Version 3.0
   4:Generated_Source\PSoC5/ADC_SAR.c **** *
   5:Generated_Source\PSoC5/ADC_SAR.c **** * Description:
   6:Generated_Source\PSoC5/ADC_SAR.c **** *  This file provides the source code to the API for the Successive
   7:Generated_Source\PSoC5/ADC_SAR.c **** *  approximation ADC Component.
   8:Generated_Source\PSoC5/ADC_SAR.c **** *
   9:Generated_Source\PSoC5/ADC_SAR.c **** * Note:
  10:Generated_Source\PSoC5/ADC_SAR.c **** *
  11:Generated_Source\PSoC5/ADC_SAR.c **** ********************************************************************************
  12:Generated_Source\PSoC5/ADC_SAR.c **** * Copyright 2008-2015, Cypress Semiconductor Corporation.  All rights reserved.
  13:Generated_Source\PSoC5/ADC_SAR.c **** * You may use this file only in accordance with the license, terms, conditions,
  14:Generated_Source\PSoC5/ADC_SAR.c **** * disclaimers, and limitations in the end user license agreement accompanying
  15:Generated_Source\PSoC5/ADC_SAR.c **** * the software package with which this file was provided.
  16:Generated_Source\PSoC5/ADC_SAR.c **** *******************************************************************************/
  17:Generated_Source\PSoC5/ADC_SAR.c **** 
  18:Generated_Source\PSoC5/ADC_SAR.c **** #include "CyLib.h"
  19:Generated_Source\PSoC5/ADC_SAR.c **** #include "ADC_SAR.h"
  20:Generated_Source\PSoC5/ADC_SAR.c **** 
  21:Generated_Source\PSoC5/ADC_SAR.c **** #if(ADC_SAR_DEFAULT_INTERNAL_CLK)
  22:Generated_Source\PSoC5/ADC_SAR.c ****     #include "ADC_SAR_theACLK.h"
  23:Generated_Source\PSoC5/ADC_SAR.c **** #endif /* End ADC_SAR_DEFAULT_INTERNAL_CLK */
  24:Generated_Source\PSoC5/ADC_SAR.c **** 
  25:Generated_Source\PSoC5/ADC_SAR.c **** 
  26:Generated_Source\PSoC5/ADC_SAR.c **** /***************************************
  27:Generated_Source\PSoC5/ADC_SAR.c **** * Forward function references
  28:Generated_Source\PSoC5/ADC_SAR.c **** ***************************************/
  29:Generated_Source\PSoC5/ADC_SAR.c **** static void ADC_SAR_CalcGain(uint8 resolution);
  30:Generated_Source\PSoC5/ADC_SAR.c **** 
  31:Generated_Source\PSoC5/ADC_SAR.c **** 
  32:Generated_Source\PSoC5/ADC_SAR.c **** /***************************************
ARM GAS  C:\Users\EpikE\AppData\Local\Temp\cc0vK7Q5.s 			page 2


  33:Generated_Source\PSoC5/ADC_SAR.c **** * Global data allocation
  34:Generated_Source\PSoC5/ADC_SAR.c **** ***************************************/
  35:Generated_Source\PSoC5/ADC_SAR.c **** uint8 ADC_SAR_initVar = 0u;
  36:Generated_Source\PSoC5/ADC_SAR.c **** volatile int16 ADC_SAR_offset;
  37:Generated_Source\PSoC5/ADC_SAR.c **** volatile int16 ADC_SAR_countsPerVolt;     /* Obsolete Gain compensation */
  38:Generated_Source\PSoC5/ADC_SAR.c **** volatile int32 ADC_SAR_countsPer10Volt;   /* Gain compensation */
  39:Generated_Source\PSoC5/ADC_SAR.c **** volatile int16 ADC_SAR_shift;
  40:Generated_Source\PSoC5/ADC_SAR.c **** 
  41:Generated_Source\PSoC5/ADC_SAR.c **** 
  42:Generated_Source\PSoC5/ADC_SAR.c **** /*******************************************************************************
  43:Generated_Source\PSoC5/ADC_SAR.c **** * Function Name: ADC_SAR_Start
  44:Generated_Source\PSoC5/ADC_SAR.c **** ********************************************************************************
  45:Generated_Source\PSoC5/ADC_SAR.c **** *
  46:Generated_Source\PSoC5/ADC_SAR.c **** * Summary:
  47:Generated_Source\PSoC5/ADC_SAR.c **** *  This is the preferred method to begin component operation.
  48:Generated_Source\PSoC5/ADC_SAR.c **** *  ADC_SAR_Start() sets the initVar variable, calls the
  49:Generated_Source\PSoC5/ADC_SAR.c **** *  ADC_SAR_Init() function, and then calls the
  50:Generated_Source\PSoC5/ADC_SAR.c **** *  ADC_SAR_Enable() function.
  51:Generated_Source\PSoC5/ADC_SAR.c **** *
  52:Generated_Source\PSoC5/ADC_SAR.c **** * Parameters:
  53:Generated_Source\PSoC5/ADC_SAR.c **** *  None.
  54:Generated_Source\PSoC5/ADC_SAR.c **** *
  55:Generated_Source\PSoC5/ADC_SAR.c **** * Return:
  56:Generated_Source\PSoC5/ADC_SAR.c **** *  None.
  57:Generated_Source\PSoC5/ADC_SAR.c **** *
  58:Generated_Source\PSoC5/ADC_SAR.c **** * Global variables:
  59:Generated_Source\PSoC5/ADC_SAR.c **** *  The ADC_SAR_initVar variable is used to indicate when/if initial
  60:Generated_Source\PSoC5/ADC_SAR.c **** *  configuration of this component has happened. The variable is initialized to
  61:Generated_Source\PSoC5/ADC_SAR.c **** *  zero and set to 1 the first time ADC_Start() is called. This allows for
  62:Generated_Source\PSoC5/ADC_SAR.c **** *  component Re-Start without re-initialization in all subsequent calls to the
  63:Generated_Source\PSoC5/ADC_SAR.c **** *  ADC_SAR_Start() routine.
  64:Generated_Source\PSoC5/ADC_SAR.c **** *  If re-initialization of the component is required the variable should be set
  65:Generated_Source\PSoC5/ADC_SAR.c **** *  to zero before call of ADC_SAR_Start() routine, or the user may call
  66:Generated_Source\PSoC5/ADC_SAR.c **** *  ADC_SAR_Init() and ADC_SAR_Enable() as done in the
  67:Generated_Source\PSoC5/ADC_SAR.c **** *  ADC_SAR_Start() routine.
  68:Generated_Source\PSoC5/ADC_SAR.c **** *
  69:Generated_Source\PSoC5/ADC_SAR.c **** * Side Effect:
  70:Generated_Source\PSoC5/ADC_SAR.c **** *  If the initVar variable is already set, this function only calls the
  71:Generated_Source\PSoC5/ADC_SAR.c **** *  ADC_SAR_Enable() function.
  72:Generated_Source\PSoC5/ADC_SAR.c **** *
  73:Generated_Source\PSoC5/ADC_SAR.c **** *******************************************************************************/
  74:Generated_Source\PSoC5/ADC_SAR.c **** void ADC_SAR_Start(void)
  75:Generated_Source\PSoC5/ADC_SAR.c **** {
  76:Generated_Source\PSoC5/ADC_SAR.c **** 
  77:Generated_Source\PSoC5/ADC_SAR.c ****     /* If not Initialized then initialize all required hardware and software */
  78:Generated_Source\PSoC5/ADC_SAR.c ****     if(ADC_SAR_initVar == 0u)
  79:Generated_Source\PSoC5/ADC_SAR.c ****     {
  80:Generated_Source\PSoC5/ADC_SAR.c ****         ADC_SAR_Init();
  81:Generated_Source\PSoC5/ADC_SAR.c ****         ADC_SAR_initVar = 1u;
  82:Generated_Source\PSoC5/ADC_SAR.c ****     }
  83:Generated_Source\PSoC5/ADC_SAR.c ****     ADC_SAR_Enable();
  84:Generated_Source\PSoC5/ADC_SAR.c **** }
  85:Generated_Source\PSoC5/ADC_SAR.c **** 
  86:Generated_Source\PSoC5/ADC_SAR.c **** 
  87:Generated_Source\PSoC5/ADC_SAR.c **** /*******************************************************************************
  88:Generated_Source\PSoC5/ADC_SAR.c **** * Function Name: ADC_SAR_Init
  89:Generated_Source\PSoC5/ADC_SAR.c **** ********************************************************************************
ARM GAS  C:\Users\EpikE\AppData\Local\Temp\cc0vK7Q5.s 			page 3


  90:Generated_Source\PSoC5/ADC_SAR.c **** *
  91:Generated_Source\PSoC5/ADC_SAR.c **** * Summary:
  92:Generated_Source\PSoC5/ADC_SAR.c **** *  Initialize component's parameters to the parameters set by user in the
  93:Generated_Source\PSoC5/ADC_SAR.c **** *  customizer of the component placed onto schematic. Usually called in
  94:Generated_Source\PSoC5/ADC_SAR.c **** *  ADC_SAR_Start().
  95:Generated_Source\PSoC5/ADC_SAR.c **** *
  96:Generated_Source\PSoC5/ADC_SAR.c **** * Parameters:
  97:Generated_Source\PSoC5/ADC_SAR.c **** *  None.
  98:Generated_Source\PSoC5/ADC_SAR.c **** *
  99:Generated_Source\PSoC5/ADC_SAR.c **** * Return:
 100:Generated_Source\PSoC5/ADC_SAR.c **** *  None.
 101:Generated_Source\PSoC5/ADC_SAR.c **** *
 102:Generated_Source\PSoC5/ADC_SAR.c **** * Global variables:
 103:Generated_Source\PSoC5/ADC_SAR.c **** *  The ADC_SAR_offset variable is initialized to 0.
 104:Generated_Source\PSoC5/ADC_SAR.c **** *
 105:Generated_Source\PSoC5/ADC_SAR.c **** *******************************************************************************/
 106:Generated_Source\PSoC5/ADC_SAR.c **** void ADC_SAR_Init(void)
 107:Generated_Source\PSoC5/ADC_SAR.c **** {
 108:Generated_Source\PSoC5/ADC_SAR.c **** 
 109:Generated_Source\PSoC5/ADC_SAR.c ****     /* This is only valid if there is an internal clock */
 110:Generated_Source\PSoC5/ADC_SAR.c ****     #if(ADC_SAR_DEFAULT_INTERNAL_CLK)
 111:Generated_Source\PSoC5/ADC_SAR.c ****         ADC_SAR_theACLK_SetMode(CYCLK_DUTY);
 112:Generated_Source\PSoC5/ADC_SAR.c ****     #endif /* End ADC_SAR_DEFAULT_INTERNAL_CLK */
 113:Generated_Source\PSoC5/ADC_SAR.c **** 
 114:Generated_Source\PSoC5/ADC_SAR.c ****     #if(ADC_SAR_IRQ_REMOVE == 0u)
 115:Generated_Source\PSoC5/ADC_SAR.c ****         /* Start and set interrupt vector */
 116:Generated_Source\PSoC5/ADC_SAR.c ****         CyIntSetPriority(ADC_SAR_INTC_NUMBER, ADC_SAR_INTC_PRIOR_NUMBER);
 117:Generated_Source\PSoC5/ADC_SAR.c ****         (void)CyIntSetVector(ADC_SAR_INTC_NUMBER, &ADC_SAR_ISR);
 118:Generated_Source\PSoC5/ADC_SAR.c ****     #endif   /* End ADC_SAR_IRQ_REMOVE */
 119:Generated_Source\PSoC5/ADC_SAR.c **** 
 120:Generated_Source\PSoC5/ADC_SAR.c ****     /* Enable IRQ mode*/
 121:Generated_Source\PSoC5/ADC_SAR.c ****     ADC_SAR_SAR_CSR1_REG |= ADC_SAR_SAR_IRQ_MASK_EN | ADC_SAR_SAR_IRQ_MODE_EDGE;
 122:Generated_Source\PSoC5/ADC_SAR.c **** 
 123:Generated_Source\PSoC5/ADC_SAR.c ****     /*Set SAR ADC resolution ADC */
 124:Generated_Source\PSoC5/ADC_SAR.c ****     ADC_SAR_SetResolution(ADC_SAR_DEFAULT_RESOLUTION);
 125:Generated_Source\PSoC5/ADC_SAR.c ****     ADC_SAR_offset = 0;
 126:Generated_Source\PSoC5/ADC_SAR.c **** }
 127:Generated_Source\PSoC5/ADC_SAR.c **** 
 128:Generated_Source\PSoC5/ADC_SAR.c **** 
 129:Generated_Source\PSoC5/ADC_SAR.c **** /*******************************************************************************
 130:Generated_Source\PSoC5/ADC_SAR.c **** * Function Name: ADC_SAR_Enable
 131:Generated_Source\PSoC5/ADC_SAR.c **** ********************************************************************************
 132:Generated_Source\PSoC5/ADC_SAR.c **** *
 133:Generated_Source\PSoC5/ADC_SAR.c **** * Summary:
 134:Generated_Source\PSoC5/ADC_SAR.c **** *  Enables the reference, clock and power for SAR ADC.
 135:Generated_Source\PSoC5/ADC_SAR.c **** *
 136:Generated_Source\PSoC5/ADC_SAR.c **** * Parameters:
 137:Generated_Source\PSoC5/ADC_SAR.c **** *  None.
 138:Generated_Source\PSoC5/ADC_SAR.c **** *
 139:Generated_Source\PSoC5/ADC_SAR.c **** * Return:
 140:Generated_Source\PSoC5/ADC_SAR.c **** *  None.
 141:Generated_Source\PSoC5/ADC_SAR.c **** *
 142:Generated_Source\PSoC5/ADC_SAR.c **** *******************************************************************************/
 143:Generated_Source\PSoC5/ADC_SAR.c **** void ADC_SAR_Enable(void)
 144:Generated_Source\PSoC5/ADC_SAR.c **** {
 145:Generated_Source\PSoC5/ADC_SAR.c ****     uint8 tmpReg;
 146:Generated_Source\PSoC5/ADC_SAR.c ****     uint8 enableInterrupts;
ARM GAS  C:\Users\EpikE\AppData\Local\Temp\cc0vK7Q5.s 			page 4


 147:Generated_Source\PSoC5/ADC_SAR.c ****     enableInterrupts = CyEnterCriticalSection();
 148:Generated_Source\PSoC5/ADC_SAR.c **** 
 149:Generated_Source\PSoC5/ADC_SAR.c ****     /* Enable the SAR ADC block in Active Power Mode */
 150:Generated_Source\PSoC5/ADC_SAR.c ****     ADC_SAR_PWRMGR_SAR_REG |= ADC_SAR_ACT_PWR_SAR_EN;
 151:Generated_Source\PSoC5/ADC_SAR.c **** 
 152:Generated_Source\PSoC5/ADC_SAR.c ****      /* Enable the SAR ADC in Standby Power Mode*/
 153:Generated_Source\PSoC5/ADC_SAR.c ****     ADC_SAR_STBY_PWRMGR_SAR_REG |= ADC_SAR_STBY_PWR_SAR_EN;
 154:Generated_Source\PSoC5/ADC_SAR.c **** 
 155:Generated_Source\PSoC5/ADC_SAR.c ****     /* This is only valid if there is an internal clock */
 156:Generated_Source\PSoC5/ADC_SAR.c ****     #if(ADC_SAR_DEFAULT_INTERNAL_CLK)
 157:Generated_Source\PSoC5/ADC_SAR.c ****         ADC_SAR_PWRMGR_CLK_REG |= ADC_SAR_ACT_PWR_CLK_EN;
 158:Generated_Source\PSoC5/ADC_SAR.c ****         ADC_SAR_STBY_PWRMGR_CLK_REG |= ADC_SAR_STBY_PWR_CLK_EN;
 159:Generated_Source\PSoC5/ADC_SAR.c ****     #endif /* End ADC_SAR_DEFAULT_INTERNAL_CLK */
 160:Generated_Source\PSoC5/ADC_SAR.c **** 
 161:Generated_Source\PSoC5/ADC_SAR.c ****     /* Enable VCM buffer and Enable Int Ref Amp */
 162:Generated_Source\PSoC5/ADC_SAR.c ****     tmpReg = ADC_SAR_SAR_CSR3_REG;
 163:Generated_Source\PSoC5/ADC_SAR.c ****     tmpReg |= ADC_SAR_SAR_EN_BUF_VCM_EN;
 164:Generated_Source\PSoC5/ADC_SAR.c ****     /* PD_BUF_VREF is OFF in External reference or Vdda reference mode */
 165:Generated_Source\PSoC5/ADC_SAR.c ****     #if((ADC_SAR_DEFAULT_REFERENCE == ADC_SAR__EXT_REF) || \
 166:Generated_Source\PSoC5/ADC_SAR.c ****         (ADC_SAR_DEFAULT_RANGE == ADC_SAR__VNEG_VDDA_DIFF))
 167:Generated_Source\PSoC5/ADC_SAR.c ****         tmpReg &= (uint8)~ADC_SAR_SAR_EN_BUF_VREF_EN;
 168:Generated_Source\PSoC5/ADC_SAR.c ****     #else /* In INTREF or INTREF Bypassed this buffer is ON */
 169:Generated_Source\PSoC5/ADC_SAR.c ****         tmpReg |= ADC_SAR_SAR_EN_BUF_VREF_EN;
 170:Generated_Source\PSoC5/ADC_SAR.c ****     #endif /* ADC_SAR_DEFAULT_REFERENCE == ADC_SAR__EXT_REF */
 171:Generated_Source\PSoC5/ADC_SAR.c ****     ADC_SAR_SAR_CSR3_REG = tmpReg;
 172:Generated_Source\PSoC5/ADC_SAR.c **** 
 173:Generated_Source\PSoC5/ADC_SAR.c ****     /* Set reference for ADC */
 174:Generated_Source\PSoC5/ADC_SAR.c ****     #if(ADC_SAR_DEFAULT_RANGE == ADC_SAR__VNEG_VDDA_DIFF)
 175:Generated_Source\PSoC5/ADC_SAR.c ****         #if(ADC_SAR_DEFAULT_REFERENCE == ADC_SAR__EXT_REF)
 176:Generated_Source\PSoC5/ADC_SAR.c ****             ADC_SAR_SAR_CSR6_REG = ADC_SAR_INT_BYPASS_EXT_VREF; /* S2 */
 177:Generated_Source\PSoC5/ADC_SAR.c ****         #else /* Internal Vdda reference or obsolete bypass mode */
 178:Generated_Source\PSoC5/ADC_SAR.c ****             ADC_SAR_SAR_CSR6_REG = ADC_SAR_VDDA_VREF;           /* S7 */
 179:Generated_Source\PSoC5/ADC_SAR.c ****         #endif /* ADC_SAR_DEFAULT_REFERENCE == ADC_SAR__EXT_REF */
 180:Generated_Source\PSoC5/ADC_SAR.c ****     #else  /* Reference goes through internal buffer */
 181:Generated_Source\PSoC5/ADC_SAR.c ****         #if(ADC_SAR_DEFAULT_REFERENCE == ADC_SAR__INT_REF_NOT_BYPASSED)
 182:Generated_Source\PSoC5/ADC_SAR.c ****             ADC_SAR_SAR_CSR6_REG = ADC_SAR_INT_VREF;            /* S3 + S4 */
 183:Generated_Source\PSoC5/ADC_SAR.c ****         #else /* INTREF Bypassed of External */
 184:Generated_Source\PSoC5/ADC_SAR.c ****             ADC_SAR_SAR_CSR6_REG = ADC_SAR_INT_BYPASS_EXT_VREF; /* S2 */
 185:Generated_Source\PSoC5/ADC_SAR.c ****         #endif /* ADC_SAR_DEFAULT_REFERENCE == ADC_SAR__INT_REF_NOT_BYPASSED */
 186:Generated_Source\PSoC5/ADC_SAR.c ****     #endif /* VNEG_VDDA_DIFF */
 187:Generated_Source\PSoC5/ADC_SAR.c **** 
 188:Generated_Source\PSoC5/ADC_SAR.c ****     /* Low non-overlap delay for sampling clock signals (for 1MSPS) */
 189:Generated_Source\PSoC5/ADC_SAR.c ****     #if(ADC_SAR_HIGH_POWER_PULSE == 0u) /* MinPulseWidth <= 50 ns */
 190:Generated_Source\PSoC5/ADC_SAR.c ****         ADC_SAR_SAR_CSR5_REG &= (uint8)~ADC_SAR_SAR_DLY_INC;
 191:Generated_Source\PSoC5/ADC_SAR.c ****     #else /* Set High non-overlap delay for sampling clock signals (for <500KSPS)*/
 192:Generated_Source\PSoC5/ADC_SAR.c ****         ADC_SAR_SAR_CSR5_REG |= ADC_SAR_SAR_DLY_INC;
 193:Generated_Source\PSoC5/ADC_SAR.c ****     #endif /* ADC_SAR_HIGH_POWER_PULSE == 0u */
 194:Generated_Source\PSoC5/ADC_SAR.c **** 
 195:Generated_Source\PSoC5/ADC_SAR.c ****     /* Increase comparator latch enable delay by 20%, 
 196:Generated_Source\PSoC5/ADC_SAR.c ****     *  Increase comparator bias current by 30% without impacting delaysDelay 
 197:Generated_Source\PSoC5/ADC_SAR.c ****     *  Default for 1MSPS) 
 198:Generated_Source\PSoC5/ADC_SAR.c ****     */
 199:Generated_Source\PSoC5/ADC_SAR.c ****     #if(ADC_SAR_HIGH_POWER_PULSE == 0u)    /* MinPulseWidth <= 50 ns */
 200:Generated_Source\PSoC5/ADC_SAR.c ****         ADC_SAR_SAR_CSR5_REG |= ADC_SAR_SAR_SEL_CSEL_DFT_CHAR;
 201:Generated_Source\PSoC5/ADC_SAR.c ****     #else /* for <500ksps */
 202:Generated_Source\PSoC5/ADC_SAR.c ****         ADC_SAR_SAR_CSR5_REG &= (uint8)~ADC_SAR_SAR_SEL_CSEL_DFT_CHAR;
 203:Generated_Source\PSoC5/ADC_SAR.c ****     #endif /* ADC_SAR_HIGH_POWER_PULSE == 0u */
ARM GAS  C:\Users\EpikE\AppData\Local\Temp\cc0vK7Q5.s 			page 5


 204:Generated_Source\PSoC5/ADC_SAR.c **** 
 205:Generated_Source\PSoC5/ADC_SAR.c ****     /* Set default power and other configurations for control register 0 in multiple lines */
 206:Generated_Source\PSoC5/ADC_SAR.c ****     ADC_SAR_SAR_CSR0_REG = (uint8)((uint8)ADC_SAR_DEFAULT_POWER << ADC_SAR_SAR_POWER_SHIFT)
 207:Generated_Source\PSoC5/ADC_SAR.c ****     /* SAR_HIZ_CLEAR:   Should not be used for LP */
 208:Generated_Source\PSoC5/ADC_SAR.c ****     #if ((CY_PSOC5LP) || (ADC_SAR_DEFAULT_REFERENCE != ADC_SAR__EXT_REF))
 209:Generated_Source\PSoC5/ADC_SAR.c ****         | ADC_SAR_SAR_HIZ_CLEAR
 210:Generated_Source\PSoC5/ADC_SAR.c ****     #endif /* SAR_HIZ_CLEAR */
 211:Generated_Source\PSoC5/ADC_SAR.c ****     /*Set Convertion mode */
 212:Generated_Source\PSoC5/ADC_SAR.c ****     #if(ADC_SAR_DEFAULT_CONV_MODE != ADC_SAR__FREE_RUNNING)      /* If triggered mode */
 213:Generated_Source\PSoC5/ADC_SAR.c ****         | ADC_SAR_SAR_MX_SOF_UDB           /* source: UDB */
 214:Generated_Source\PSoC5/ADC_SAR.c ****         | ADC_SAR_SAR_SOF_MODE_EDGE        /* Set edge-sensitive sof source */
 215:Generated_Source\PSoC5/ADC_SAR.c ****     #endif /* ADC_SAR_DEFAULT_CONV_MODE */
 216:Generated_Source\PSoC5/ADC_SAR.c ****     ; /* end of multiple line initialization */
 217:Generated_Source\PSoC5/ADC_SAR.c **** 
 218:Generated_Source\PSoC5/ADC_SAR.c ****     ADC_SAR_SAR_TR0_REG = ADC_SAR_SAR_CAP_TRIM_2;
 219:Generated_Source\PSoC5/ADC_SAR.c **** 
 220:Generated_Source\PSoC5/ADC_SAR.c ****     /* Enable clock for SAR ADC*/
 221:Generated_Source\PSoC5/ADC_SAR.c ****     ADC_SAR_SAR_CLK_REG |= ADC_SAR_SAR_MX_CLK_EN;
 222:Generated_Source\PSoC5/ADC_SAR.c **** 
 223:Generated_Source\PSoC5/ADC_SAR.c ****     CyDelayUs(10u); /* The block is ready to use 10 us after the enable signal is set high. */
 224:Generated_Source\PSoC5/ADC_SAR.c **** 
 225:Generated_Source\PSoC5/ADC_SAR.c ****     #if(ADC_SAR_IRQ_REMOVE == 0u)
 226:Generated_Source\PSoC5/ADC_SAR.c ****         /* Clear a pending interrupt */
 227:Generated_Source\PSoC5/ADC_SAR.c ****         CyIntClearPending(ADC_SAR_INTC_NUMBER);
 228:Generated_Source\PSoC5/ADC_SAR.c ****     #endif   /* End ADC_SAR_IRQ_REMOVE */
 229:Generated_Source\PSoC5/ADC_SAR.c **** 
 230:Generated_Source\PSoC5/ADC_SAR.c ****     CyExitCriticalSection(enableInterrupts);
 231:Generated_Source\PSoC5/ADC_SAR.c **** }
 232:Generated_Source\PSoC5/ADC_SAR.c **** 
 233:Generated_Source\PSoC5/ADC_SAR.c **** 
 234:Generated_Source\PSoC5/ADC_SAR.c **** /*******************************************************************************
 235:Generated_Source\PSoC5/ADC_SAR.c **** * Function Name: ADC_SAR_Stop
 236:Generated_Source\PSoC5/ADC_SAR.c **** ********************************************************************************
 237:Generated_Source\PSoC5/ADC_SAR.c **** *
 238:Generated_Source\PSoC5/ADC_SAR.c **** * Summary:
 239:Generated_Source\PSoC5/ADC_SAR.c **** *  Stops ADC conversions and puts the ADC into its lowest power mode.
 240:Generated_Source\PSoC5/ADC_SAR.c **** *
 241:Generated_Source\PSoC5/ADC_SAR.c **** * Parameters:
 242:Generated_Source\PSoC5/ADC_SAR.c **** *  None.
 243:Generated_Source\PSoC5/ADC_SAR.c **** *
 244:Generated_Source\PSoC5/ADC_SAR.c **** * Return:
 245:Generated_Source\PSoC5/ADC_SAR.c **** *  None.
 246:Generated_Source\PSoC5/ADC_SAR.c **** *
 247:Generated_Source\PSoC5/ADC_SAR.c **** *******************************************************************************/
 248:Generated_Source\PSoC5/ADC_SAR.c **** void ADC_SAR_Stop(void)
 249:Generated_Source\PSoC5/ADC_SAR.c **** {
 250:Generated_Source\PSoC5/ADC_SAR.c ****     uint8 enableInterrupts;
 251:Generated_Source\PSoC5/ADC_SAR.c ****     enableInterrupts = CyEnterCriticalSection();
 252:Generated_Source\PSoC5/ADC_SAR.c **** 
 253:Generated_Source\PSoC5/ADC_SAR.c ****     /* Stop all conversions */
 254:Generated_Source\PSoC5/ADC_SAR.c ****     ADC_SAR_SAR_CSR0_REG &= (uint8)~ADC_SAR_SAR_SOF_START_CONV;
 255:Generated_Source\PSoC5/ADC_SAR.c ****     /* Disable the SAR ADC block in Active Power Mode */
 256:Generated_Source\PSoC5/ADC_SAR.c ****     ADC_SAR_PWRMGR_SAR_REG &= (uint8)~ADC_SAR_ACT_PWR_SAR_EN;
 257:Generated_Source\PSoC5/ADC_SAR.c ****     /* Disable the SAR ADC in Standby Power Mode */
 258:Generated_Source\PSoC5/ADC_SAR.c ****     ADC_SAR_STBY_PWRMGR_SAR_REG &= (uint8)~ADC_SAR_STBY_PWR_SAR_EN;
 259:Generated_Source\PSoC5/ADC_SAR.c **** 
 260:Generated_Source\PSoC5/ADC_SAR.c ****     /* This is only valid if there is an internal clock */
ARM GAS  C:\Users\EpikE\AppData\Local\Temp\cc0vK7Q5.s 			page 6


 261:Generated_Source\PSoC5/ADC_SAR.c ****     #if(ADC_SAR_DEFAULT_INTERNAL_CLK)
 262:Generated_Source\PSoC5/ADC_SAR.c ****         ADC_SAR_PWRMGR_CLK_REG &= (uint8)~ADC_SAR_ACT_PWR_CLK_EN;
 263:Generated_Source\PSoC5/ADC_SAR.c ****         ADC_SAR_STBY_PWRMGR_CLK_REG &= (uint8)~ADC_SAR_STBY_PWR_CLK_EN;
 264:Generated_Source\PSoC5/ADC_SAR.c ****     #endif /* End ADC_SAR_DEFAULT_INTERNAL_CLK */
 265:Generated_Source\PSoC5/ADC_SAR.c **** 
 266:Generated_Source\PSoC5/ADC_SAR.c ****     CyExitCriticalSection(enableInterrupts);
 267:Generated_Source\PSoC5/ADC_SAR.c **** 
 268:Generated_Source\PSoC5/ADC_SAR.c **** }
 269:Generated_Source\PSoC5/ADC_SAR.c **** 
 270:Generated_Source\PSoC5/ADC_SAR.c **** 
 271:Generated_Source\PSoC5/ADC_SAR.c **** /*******************************************************************************
 272:Generated_Source\PSoC5/ADC_SAR.c **** * Function Name: ADC_SAR_SetPower
 273:Generated_Source\PSoC5/ADC_SAR.c **** ********************************************************************************
 274:Generated_Source\PSoC5/ADC_SAR.c **** *
 275:Generated_Source\PSoC5/ADC_SAR.c **** * Summary:
 276:Generated_Source\PSoC5/ADC_SAR.c **** *  Sets the operational power of the ADC. You should use the higher power
 277:Generated_Source\PSoC5/ADC_SAR.c **** *  settings with faster clock speeds.
 278:Generated_Source\PSoC5/ADC_SAR.c **** *
 279:Generated_Source\PSoC5/ADC_SAR.c **** * Parameters:
 280:Generated_Source\PSoC5/ADC_SAR.c **** *  power:  Power setting for ADC
 281:Generated_Source\PSoC5/ADC_SAR.c **** *  0 ->    Normal
 282:Generated_Source\PSoC5/ADC_SAR.c **** *  1 ->    Medium power
 283:Generated_Source\PSoC5/ADC_SAR.c **** *  2 ->    1.25 power
 284:Generated_Source\PSoC5/ADC_SAR.c **** *  3 ->    Minimum power.
 285:Generated_Source\PSoC5/ADC_SAR.c **** *
 286:Generated_Source\PSoC5/ADC_SAR.c **** * Return:
 287:Generated_Source\PSoC5/ADC_SAR.c **** *  None.
 288:Generated_Source\PSoC5/ADC_SAR.c **** *
 289:Generated_Source\PSoC5/ADC_SAR.c **** *******************************************************************************/
 290:Generated_Source\PSoC5/ADC_SAR.c **** void ADC_SAR_SetPower(uint8 power)
 291:Generated_Source\PSoC5/ADC_SAR.c **** {
 292:Generated_Source\PSoC5/ADC_SAR.c ****     uint8 tmpReg;
 293:Generated_Source\PSoC5/ADC_SAR.c **** 
 294:Generated_Source\PSoC5/ADC_SAR.c ****     /* mask off invalid power settings */
 295:Generated_Source\PSoC5/ADC_SAR.c ****     power &= ADC_SAR_SAR_API_POWER_MASK;
 296:Generated_Source\PSoC5/ADC_SAR.c **** 
 297:Generated_Source\PSoC5/ADC_SAR.c ****     /* Set Power parameter  */
 298:Generated_Source\PSoC5/ADC_SAR.c ****     tmpReg = ADC_SAR_SAR_CSR0_REG & (uint8)~ADC_SAR_SAR_POWER_MASK;
 299:Generated_Source\PSoC5/ADC_SAR.c ****     tmpReg |= (uint8)(power << ADC_SAR_SAR_POWER_SHIFT);
 300:Generated_Source\PSoC5/ADC_SAR.c ****     ADC_SAR_SAR_CSR0_REG = tmpReg;
 301:Generated_Source\PSoC5/ADC_SAR.c **** }
 302:Generated_Source\PSoC5/ADC_SAR.c **** 
 303:Generated_Source\PSoC5/ADC_SAR.c **** 
 304:Generated_Source\PSoC5/ADC_SAR.c **** /*******************************************************************************
 305:Generated_Source\PSoC5/ADC_SAR.c **** * Function Name: ADC_SAR_SetResolution
 306:Generated_Source\PSoC5/ADC_SAR.c **** ********************************************************************************
 307:Generated_Source\PSoC5/ADC_SAR.c **** *
 308:Generated_Source\PSoC5/ADC_SAR.c **** * Summary:
 309:Generated_Source\PSoC5/ADC_SAR.c **** *  Sets the Relution of the SAR.
 310:Generated_Source\PSoC5/ADC_SAR.c **** *
 311:Generated_Source\PSoC5/ADC_SAR.c **** * Parameters:
 312:Generated_Source\PSoC5/ADC_SAR.c **** *  resolution:
 313:Generated_Source\PSoC5/ADC_SAR.c **** *  12 ->    RES12
 314:Generated_Source\PSoC5/ADC_SAR.c **** *  10 ->    RES10
 315:Generated_Source\PSoC5/ADC_SAR.c **** *  8  ->    RES8
 316:Generated_Source\PSoC5/ADC_SAR.c **** *
 317:Generated_Source\PSoC5/ADC_SAR.c **** * Return:
ARM GAS  C:\Users\EpikE\AppData\Local\Temp\cc0vK7Q5.s 			page 7


 318:Generated_Source\PSoC5/ADC_SAR.c **** *  None.
 319:Generated_Source\PSoC5/ADC_SAR.c **** *
 320:Generated_Source\PSoC5/ADC_SAR.c **** * Side Effects:
 321:Generated_Source\PSoC5/ADC_SAR.c **** *  The ADC resolution cannot be changed during a conversion cycle. The
 322:Generated_Source\PSoC5/ADC_SAR.c **** *  recommended best practice is to stop conversions with
 323:Generated_Source\PSoC5/ADC_SAR.c **** *  ADC_StopConvert(), change the resolution, then restart the
 324:Generated_Source\PSoC5/ADC_SAR.c **** *  conversions with ADC_StartConvert().
 325:Generated_Source\PSoC5/ADC_SAR.c **** *  If you decide not to stop conversions before calling this API, you
 326:Generated_Source\PSoC5/ADC_SAR.c **** *  should use ADC_IsEndConversion() to wait until conversion is complete
 327:Generated_Source\PSoC5/ADC_SAR.c **** *  before changing the resolution.
 328:Generated_Source\PSoC5/ADC_SAR.c **** *  If you call ADC_SetResolution() during a conversion, the resolution will
 329:Generated_Source\PSoC5/ADC_SAR.c **** *  not be changed until the current conversion is complete. Data will not be
 330:Generated_Source\PSoC5/ADC_SAR.c **** *  available in the new resolution for another 6 + "New Resolution(in bits)"
 331:Generated_Source\PSoC5/ADC_SAR.c **** *  clock cycles.
 332:Generated_Source\PSoC5/ADC_SAR.c **** *  You may need add a delay of this number of clock cycles after
 333:Generated_Source\PSoC5/ADC_SAR.c **** *  ADC_SetResolution() is called before data is valid again.
 334:Generated_Source\PSoC5/ADC_SAR.c **** *  Affects ADC_CountsTo_Volts(), ADC_CountsTo_mVolts(), and
 335:Generated_Source\PSoC5/ADC_SAR.c **** *  ADC_CountsTo_uVolts() by calculating the correct conversion between ADC
 336:Generated_Source\PSoC5/ADC_SAR.c **** *  counts and the applied input voltage. Calculation depends on resolution,
 337:Generated_Source\PSoC5/ADC_SAR.c **** *  input range, and voltage reference.
 338:Generated_Source\PSoC5/ADC_SAR.c **** *
 339:Generated_Source\PSoC5/ADC_SAR.c **** *******************************************************************************/
 340:Generated_Source\PSoC5/ADC_SAR.c **** void ADC_SAR_SetResolution(uint8 resolution)
 341:Generated_Source\PSoC5/ADC_SAR.c **** {
 342:Generated_Source\PSoC5/ADC_SAR.c ****     uint8 tmpReg;
 343:Generated_Source\PSoC5/ADC_SAR.c **** 
 344:Generated_Source\PSoC5/ADC_SAR.c ****     /* Set SAR ADC resolution and sample width: 18 conversion cycles at 12bits + 1 gap */
 345:Generated_Source\PSoC5/ADC_SAR.c ****     switch (resolution)
 346:Generated_Source\PSoC5/ADC_SAR.c ****     {
 347:Generated_Source\PSoC5/ADC_SAR.c ****         case (uint8)ADC_SAR__BITS_12:
 348:Generated_Source\PSoC5/ADC_SAR.c ****             tmpReg = ADC_SAR_SAR_RESOLUTION_12BIT | ADC_SAR_SAR_SAMPLE_WIDTH;
 349:Generated_Source\PSoC5/ADC_SAR.c ****             break;
 350:Generated_Source\PSoC5/ADC_SAR.c ****         case (uint8)ADC_SAR__BITS_10:
 351:Generated_Source\PSoC5/ADC_SAR.c ****             tmpReg = ADC_SAR_SAR_RESOLUTION_10BIT | ADC_SAR_SAR_SAMPLE_WIDTH;
 352:Generated_Source\PSoC5/ADC_SAR.c ****             break;
 353:Generated_Source\PSoC5/ADC_SAR.c ****         case (uint8)ADC_SAR__BITS_8:
 354:Generated_Source\PSoC5/ADC_SAR.c ****             tmpReg = ADC_SAR_SAR_RESOLUTION_8BIT | ADC_SAR_SAR_SAMPLE_WIDTH;
 355:Generated_Source\PSoC5/ADC_SAR.c ****             break;
 356:Generated_Source\PSoC5/ADC_SAR.c ****         default:
 357:Generated_Source\PSoC5/ADC_SAR.c ****             tmpReg = ADC_SAR_SAR_RESOLUTION_12BIT | ADC_SAR_SAR_SAMPLE_WIDTH;
 358:Generated_Source\PSoC5/ADC_SAR.c ****             /* Halt CPU in debug mode if resolution is out of valid range */
 359:Generated_Source\PSoC5/ADC_SAR.c ****             CYASSERT(0u != 0u);
 360:Generated_Source\PSoC5/ADC_SAR.c ****             break;
 361:Generated_Source\PSoC5/ADC_SAR.c ****     }
 362:Generated_Source\PSoC5/ADC_SAR.c ****     ADC_SAR_SAR_CSR2_REG = tmpReg;
 363:Generated_Source\PSoC5/ADC_SAR.c **** 
 364:Generated_Source\PSoC5/ADC_SAR.c ****      /* Calculate gain for convert counts to volts */
 365:Generated_Source\PSoC5/ADC_SAR.c ****     ADC_SAR_CalcGain(resolution);
 366:Generated_Source\PSoC5/ADC_SAR.c **** }
 367:Generated_Source\PSoC5/ADC_SAR.c **** 
 368:Generated_Source\PSoC5/ADC_SAR.c **** 
 369:Generated_Source\PSoC5/ADC_SAR.c **** #if(ADC_SAR_DEFAULT_CONV_MODE != ADC_SAR__HARDWARE_TRIGGER)
 370:Generated_Source\PSoC5/ADC_SAR.c **** 
 371:Generated_Source\PSoC5/ADC_SAR.c **** 
 372:Generated_Source\PSoC5/ADC_SAR.c ****     /*******************************************************************************
 373:Generated_Source\PSoC5/ADC_SAR.c ****     * Function Name: ADC_SAR_StartConvert
 374:Generated_Source\PSoC5/ADC_SAR.c ****     ********************************************************************************
ARM GAS  C:\Users\EpikE\AppData\Local\Temp\cc0vK7Q5.s 			page 8


 375:Generated_Source\PSoC5/ADC_SAR.c ****     *
 376:Generated_Source\PSoC5/ADC_SAR.c ****     * Summary:
 377:Generated_Source\PSoC5/ADC_SAR.c ****     *  Forces the ADC to initiate a conversion. In free-running mode, the ADC runs
 378:Generated_Source\PSoC5/ADC_SAR.c ****     *  continuously. In software trigger mode, the function also acts as a software
 379:Generated_Source\PSoC5/ADC_SAR.c ****     *  version of the SOC and every conversion must be triggered by
 380:Generated_Source\PSoC5/ADC_SAR.c ****     *  ADC_SAR_StartConvert(). This function is not available when the
 381:Generated_Source\PSoC5/ADC_SAR.c ****     *  Hardware Trigger sample mode is selected.
 382:Generated_Source\PSoC5/ADC_SAR.c ****     *
 383:Generated_Source\PSoC5/ADC_SAR.c ****     * Parameters:
 384:Generated_Source\PSoC5/ADC_SAR.c ****     *  None.
 385:Generated_Source\PSoC5/ADC_SAR.c ****     *
 386:Generated_Source\PSoC5/ADC_SAR.c ****     * Return:
 387:Generated_Source\PSoC5/ADC_SAR.c ****     *  None.
 388:Generated_Source\PSoC5/ADC_SAR.c ****     *
 389:Generated_Source\PSoC5/ADC_SAR.c ****     * Theory:
 390:Generated_Source\PSoC5/ADC_SAR.c ****     *  Forces the ADC to initiate a conversion. In Free Running mode, the ADC will
 391:Generated_Source\PSoC5/ADC_SAR.c ****     *  run continuously. In a software trigger mode the function also acts as a
 392:Generated_Source\PSoC5/ADC_SAR.c ****     *  software version of the SOC. Here every conversion has to be triggered by
 393:Generated_Source\PSoC5/ADC_SAR.c ****     *  the routine. This writes into the SOC bit in SAR_CTRL reg.
 394:Generated_Source\PSoC5/ADC_SAR.c ****     *
 395:Generated_Source\PSoC5/ADC_SAR.c ****     * Side Effects:
 396:Generated_Source\PSoC5/ADC_SAR.c ****     *  In a software trigger mode the function switches source for SOF from the
 397:Generated_Source\PSoC5/ADC_SAR.c ****     *  external pin to the internal SOF generation. Application should not call
 398:Generated_Source\PSoC5/ADC_SAR.c ****     *  StartConvert if external source used for SOF.
 399:Generated_Source\PSoC5/ADC_SAR.c ****     *
 400:Generated_Source\PSoC5/ADC_SAR.c ****     *******************************************************************************/
 401:Generated_Source\PSoC5/ADC_SAR.c ****     void ADC_SAR_StartConvert(void)
 402:Generated_Source\PSoC5/ADC_SAR.c ****     {
 403:Generated_Source\PSoC5/ADC_SAR.c ****         #if(ADC_SAR_DEFAULT_CONV_MODE != ADC_SAR__FREE_RUNNING)  /* If software triggered mode */
 404:Generated_Source\PSoC5/ADC_SAR.c ****             ADC_SAR_SAR_CSR0_REG &= (uint8)~ADC_SAR_SAR_MX_SOF_UDB;   /* source: SOF bit */
 405:Generated_Source\PSoC5/ADC_SAR.c ****         #endif /* End ADC_SAR_DEFAULT_CONV_MODE */
 406:Generated_Source\PSoC5/ADC_SAR.c **** 
 407:Generated_Source\PSoC5/ADC_SAR.c ****         /* Start the conversion */
 408:Generated_Source\PSoC5/ADC_SAR.c ****         ADC_SAR_SAR_CSR0_REG |= ADC_SAR_SAR_SOF_START_CONV;
 409:Generated_Source\PSoC5/ADC_SAR.c ****     }
 410:Generated_Source\PSoC5/ADC_SAR.c **** 
 411:Generated_Source\PSoC5/ADC_SAR.c **** 
 412:Generated_Source\PSoC5/ADC_SAR.c ****     /*******************************************************************************
 413:Generated_Source\PSoC5/ADC_SAR.c ****     * Function Name: ADC_SAR_StopConvert
 414:Generated_Source\PSoC5/ADC_SAR.c ****     ********************************************************************************
 415:Generated_Source\PSoC5/ADC_SAR.c ****     *
 416:Generated_Source\PSoC5/ADC_SAR.c ****     * Summary:
 417:Generated_Source\PSoC5/ADC_SAR.c ****     *  Forces the ADC to stop conversions. If a conversion is currently executing,
 418:Generated_Source\PSoC5/ADC_SAR.c ****     *  that conversion will complete, but no further conversions will occur. This
 419:Generated_Source\PSoC5/ADC_SAR.c ****     *  function is not available when the Hardware Trigger sample mode is selected.
 420:Generated_Source\PSoC5/ADC_SAR.c ****     *
 421:Generated_Source\PSoC5/ADC_SAR.c ****     * Parameters:
 422:Generated_Source\PSoC5/ADC_SAR.c ****     *  None.
 423:Generated_Source\PSoC5/ADC_SAR.c ****     *
 424:Generated_Source\PSoC5/ADC_SAR.c ****     * Return:
 425:Generated_Source\PSoC5/ADC_SAR.c ****     *  None.
 426:Generated_Source\PSoC5/ADC_SAR.c ****     *
 427:Generated_Source\PSoC5/ADC_SAR.c ****     * Theory:
 428:Generated_Source\PSoC5/ADC_SAR.c ****     *  Stops ADC conversion in Free Running mode.
 429:Generated_Source\PSoC5/ADC_SAR.c ****     *
 430:Generated_Source\PSoC5/ADC_SAR.c ****     * Side Effects:
 431:Generated_Source\PSoC5/ADC_SAR.c ****     *  In Software Trigger sample mode, this function sets a software version of the
ARM GAS  C:\Users\EpikE\AppData\Local\Temp\cc0vK7Q5.s 			page 9


 432:Generated_Source\PSoC5/ADC_SAR.c ****     *  SOC to low level and switches the SOC source to hardware SOC input.
 433:Generated_Source\PSoC5/ADC_SAR.c ****     *
 434:Generated_Source\PSoC5/ADC_SAR.c ****     *******************************************************************************/
 435:Generated_Source\PSoC5/ADC_SAR.c ****     void ADC_SAR_StopConvert(void)
 436:Generated_Source\PSoC5/ADC_SAR.c ****     {
 437:Generated_Source\PSoC5/ADC_SAR.c ****         /* Stop all conversions */
 438:Generated_Source\PSoC5/ADC_SAR.c ****         ADC_SAR_SAR_CSR0_REG &= (uint8)~ADC_SAR_SAR_SOF_START_CONV;
 439:Generated_Source\PSoC5/ADC_SAR.c **** 
 440:Generated_Source\PSoC5/ADC_SAR.c ****         #if(ADC_SAR_DEFAULT_CONV_MODE != ADC_SAR__FREE_RUNNING)  /* If software triggered mode */
 441:Generated_Source\PSoC5/ADC_SAR.c ****             /* Return source to UDB for hardware SOF signal */
 442:Generated_Source\PSoC5/ADC_SAR.c ****             ADC_SAR_SAR_CSR0_REG |= ADC_SAR_SAR_MX_SOF_UDB;    /* source: UDB */
 443:Generated_Source\PSoC5/ADC_SAR.c ****         #endif /* End ADC_SAR_DEFAULT_CONV_MODE */
 444:Generated_Source\PSoC5/ADC_SAR.c **** 
 445:Generated_Source\PSoC5/ADC_SAR.c ****     }
 446:Generated_Source\PSoC5/ADC_SAR.c **** 
 447:Generated_Source\PSoC5/ADC_SAR.c **** #endif /* End ADC_SAR_DEFAULT_CONV_MODE != ADC_SAR__HARDWARE_TRIGGER */
 448:Generated_Source\PSoC5/ADC_SAR.c **** 
 449:Generated_Source\PSoC5/ADC_SAR.c **** 
 450:Generated_Source\PSoC5/ADC_SAR.c **** /*******************************************************************************
 451:Generated_Source\PSoC5/ADC_SAR.c **** * Function Name: ADC_SAR_IsEndConversion
 452:Generated_Source\PSoC5/ADC_SAR.c **** ********************************************************************************
 453:Generated_Source\PSoC5/ADC_SAR.c **** *
 454:Generated_Source\PSoC5/ADC_SAR.c **** * Summary:
 455:Generated_Source\PSoC5/ADC_SAR.c **** *  Immediately returns the status of the conversion or does not return
 456:Generated_Source\PSoC5/ADC_SAR.c **** *  (blocking) until the conversion completes, depending on the retMode
 457:Generated_Source\PSoC5/ADC_SAR.c **** *  parameter.
 458:Generated_Source\PSoC5/ADC_SAR.c **** *
 459:Generated_Source\PSoC5/ADC_SAR.c **** * Parameters:
 460:Generated_Source\PSoC5/ADC_SAR.c **** *  retMode:  Check conversion return mode.
 461:Generated_Source\PSoC5/ADC_SAR.c **** *   ADC_SAR_RETURN_STATUS: Immediately returns the status. If the
 462:Generated_Source\PSoC5/ADC_SAR.c **** *     value returned is zero, the conversion is not complete, and this function
 463:Generated_Source\PSoC5/ADC_SAR.c **** *     should be retried until a nonzero result is returned.
 464:Generated_Source\PSoC5/ADC_SAR.c **** *   ADC_SAR_WAIT_FOR_RESULT: Does not return a result until the ADC
 465:Generated_Source\PSoC5/ADC_SAR.c **** *     conversion is complete.
 466:Generated_Source\PSoC5/ADC_SAR.c **** *
 467:Generated_Source\PSoC5/ADC_SAR.c **** * Return:
 468:Generated_Source\PSoC5/ADC_SAR.c **** *  (uint8)  0 =>  The ADC is still calculating the last result.
 469:Generated_Source\PSoC5/ADC_SAR.c **** *           1 =>  The last conversion is complete.
 470:Generated_Source\PSoC5/ADC_SAR.c **** *
 471:Generated_Source\PSoC5/ADC_SAR.c **** * Side Effects:
 472:Generated_Source\PSoC5/ADC_SAR.c **** *  This function reads the end of conversion status, which is cleared on read.
 473:Generated_Source\PSoC5/ADC_SAR.c **** *
 474:Generated_Source\PSoC5/ADC_SAR.c **** *******************************************************************************/
 475:Generated_Source\PSoC5/ADC_SAR.c **** uint8 ADC_SAR_IsEndConversion(uint8 retMode)
 476:Generated_Source\PSoC5/ADC_SAR.c **** {
 477:Generated_Source\PSoC5/ADC_SAR.c ****     uint8 status;
 478:Generated_Source\PSoC5/ADC_SAR.c **** 
 479:Generated_Source\PSoC5/ADC_SAR.c ****     do
 480:Generated_Source\PSoC5/ADC_SAR.c ****     {
 481:Generated_Source\PSoC5/ADC_SAR.c ****         status = ADC_SAR_SAR_CSR1_REG & ADC_SAR_SAR_EOF_1;
 482:Generated_Source\PSoC5/ADC_SAR.c ****     } while ((status != ADC_SAR_SAR_EOF_1) && (retMode == ADC_SAR_WAIT_FOR_RESULT));
 483:Generated_Source\PSoC5/ADC_SAR.c ****     /* If convertion complete, wait until EOF bit released */
 484:Generated_Source\PSoC5/ADC_SAR.c ****     if(status == ADC_SAR_SAR_EOF_1)
 485:Generated_Source\PSoC5/ADC_SAR.c ****     {
 486:Generated_Source\PSoC5/ADC_SAR.c ****         /* wait one ADC clock to let the EOC status bit release */
 487:Generated_Source\PSoC5/ADC_SAR.c ****         CyDelayUs(1u);
 488:Generated_Source\PSoC5/ADC_SAR.c ****         /* Do the unconditional read operation of the CSR1 register to make sure the EOC bit has be
ARM GAS  C:\Users\EpikE\AppData\Local\Temp\cc0vK7Q5.s 			page 10


 489:Generated_Source\PSoC5/ADC_SAR.c ****         CY_GET_REG8(ADC_SAR_SAR_CSR1_PTR);
 490:Generated_Source\PSoC5/ADC_SAR.c ****     }
 491:Generated_Source\PSoC5/ADC_SAR.c **** 
 492:Generated_Source\PSoC5/ADC_SAR.c ****     return(status);
 493:Generated_Source\PSoC5/ADC_SAR.c **** }
 494:Generated_Source\PSoC5/ADC_SAR.c **** 
 495:Generated_Source\PSoC5/ADC_SAR.c **** 
 496:Generated_Source\PSoC5/ADC_SAR.c **** /*******************************************************************************
 497:Generated_Source\PSoC5/ADC_SAR.c **** * Function Name: ADC_SAR_GetResult8
 498:Generated_Source\PSoC5/ADC_SAR.c **** ********************************************************************************
 499:Generated_Source\PSoC5/ADC_SAR.c **** *
 500:Generated_Source\PSoC5/ADC_SAR.c **** * Summary:
 501:Generated_Source\PSoC5/ADC_SAR.c **** *  Returns the result of an 8-bit conversion. If the resolution is set greater
 502:Generated_Source\PSoC5/ADC_SAR.c **** *  than 8 bits, the function returns the LSB of the result.
 503:Generated_Source\PSoC5/ADC_SAR.c **** *  ADC_SAR_IsEndConversion() should be called to verify that the data
 504:Generated_Source\PSoC5/ADC_SAR.c **** *   sample is ready.
 505:Generated_Source\PSoC5/ADC_SAR.c **** *
 506:Generated_Source\PSoC5/ADC_SAR.c **** * Parameters:
 507:Generated_Source\PSoC5/ADC_SAR.c **** *  None.
 508:Generated_Source\PSoC5/ADC_SAR.c **** *
 509:Generated_Source\PSoC5/ADC_SAR.c **** * Return:
 510:Generated_Source\PSoC5/ADC_SAR.c **** *  The LSB of the last ADC conversion.
 511:Generated_Source\PSoC5/ADC_SAR.c **** *
 512:Generated_Source\PSoC5/ADC_SAR.c **** * Global Variables:
 513:Generated_Source\PSoC5/ADC_SAR.c **** *  ADC_SAR_shift - used to convert the ADC counts to the 2s
 514:Generated_Source\PSoC5/ADC_SAR.c **** *  compliment form.
 515:Generated_Source\PSoC5/ADC_SAR.c **** *
 516:Generated_Source\PSoC5/ADC_SAR.c **** * Side Effects:
 517:Generated_Source\PSoC5/ADC_SAR.c **** *  Converts the ADC counts to the 2s complement form.
 518:Generated_Source\PSoC5/ADC_SAR.c **** *
 519:Generated_Source\PSoC5/ADC_SAR.c **** *******************************************************************************/
 520:Generated_Source\PSoC5/ADC_SAR.c **** int8 ADC_SAR_GetResult8( void )
 521:Generated_Source\PSoC5/ADC_SAR.c **** {
 522:Generated_Source\PSoC5/ADC_SAR.c ****     return( (int8)ADC_SAR_SAR_WRK0_REG - (int8)ADC_SAR_shift);
 523:Generated_Source\PSoC5/ADC_SAR.c **** }
 524:Generated_Source\PSoC5/ADC_SAR.c **** 
 525:Generated_Source\PSoC5/ADC_SAR.c **** 
 526:Generated_Source\PSoC5/ADC_SAR.c **** /*******************************************************************************
 527:Generated_Source\PSoC5/ADC_SAR.c **** * Function Name: ADC_SAR_GetResult16
 528:Generated_Source\PSoC5/ADC_SAR.c **** ********************************************************************************
 529:Generated_Source\PSoC5/ADC_SAR.c **** *
 530:Generated_Source\PSoC5/ADC_SAR.c **** * Summary:
 531:Generated_Source\PSoC5/ADC_SAR.c **** *  Returns a 16-bit result for a conversion with a result that has a resolution
 532:Generated_Source\PSoC5/ADC_SAR.c **** *  of 8 to 12 bits.
 533:Generated_Source\PSoC5/ADC_SAR.c **** *  ADC_SAR_IsEndConversion() should be called to verify that the data
 534:Generated_Source\PSoC5/ADC_SAR.c **** *   sample is ready
 535:Generated_Source\PSoC5/ADC_SAR.c **** *
 536:Generated_Source\PSoC5/ADC_SAR.c **** * Parameters:
 537:Generated_Source\PSoC5/ADC_SAR.c **** *  None.
 538:Generated_Source\PSoC5/ADC_SAR.c **** *
 539:Generated_Source\PSoC5/ADC_SAR.c **** * Return:
 540:Generated_Source\PSoC5/ADC_SAR.c **** *  The 16-bit result of the last ADC conversion
 541:Generated_Source\PSoC5/ADC_SAR.c **** *
 542:Generated_Source\PSoC5/ADC_SAR.c **** * Global Variables:
 543:Generated_Source\PSoC5/ADC_SAR.c **** *  ADC_SAR_shift - used to convert the ADC counts to the 2s
 544:Generated_Source\PSoC5/ADC_SAR.c **** *  compliment form.
 545:Generated_Source\PSoC5/ADC_SAR.c **** *
ARM GAS  C:\Users\EpikE\AppData\Local\Temp\cc0vK7Q5.s 			page 11


 546:Generated_Source\PSoC5/ADC_SAR.c **** * Side Effects:
 547:Generated_Source\PSoC5/ADC_SAR.c **** *  Converts the ADC counts to the 2s complement form.
 548:Generated_Source\PSoC5/ADC_SAR.c **** *
 549:Generated_Source\PSoC5/ADC_SAR.c **** *******************************************************************************/
 550:Generated_Source\PSoC5/ADC_SAR.c **** int16 ADC_SAR_GetResult16( void )
 551:Generated_Source\PSoC5/ADC_SAR.c **** {
 552:Generated_Source\PSoC5/ADC_SAR.c ****     uint16 res;
 553:Generated_Source\PSoC5/ADC_SAR.c **** 
 554:Generated_Source\PSoC5/ADC_SAR.c ****     res = CY_GET_REG16(ADC_SAR_SAR_WRK_PTR);
 555:Generated_Source\PSoC5/ADC_SAR.c **** 
 556:Generated_Source\PSoC5/ADC_SAR.c ****     return( (int16)res - ADC_SAR_shift );
 557:Generated_Source\PSoC5/ADC_SAR.c **** }
 558:Generated_Source\PSoC5/ADC_SAR.c **** 
 559:Generated_Source\PSoC5/ADC_SAR.c **** 
 560:Generated_Source\PSoC5/ADC_SAR.c **** /*******************************************************************************
 561:Generated_Source\PSoC5/ADC_SAR.c **** * Function Name: ADC_SAR_SetOffset
 562:Generated_Source\PSoC5/ADC_SAR.c **** ********************************************************************************
 563:Generated_Source\PSoC5/ADC_SAR.c **** *
 564:Generated_Source\PSoC5/ADC_SAR.c **** * Summary:
 565:Generated_Source\PSoC5/ADC_SAR.c **** *  Sets the ADC offset, which is used by ADC_SAR_CountsTo_Volts(),
 566:Generated_Source\PSoC5/ADC_SAR.c **** *  ADC_SAR_CountsTo_mVolts(), and ADC_SAR_CountsTo_uVolts()
 567:Generated_Source\PSoC5/ADC_SAR.c **** *  to subtract the offset from the given reading before calculating the voltage
 568:Generated_Source\PSoC5/ADC_SAR.c **** *  conversion.
 569:Generated_Source\PSoC5/ADC_SAR.c **** *
 570:Generated_Source\PSoC5/ADC_SAR.c **** * Parameters:
 571:Generated_Source\PSoC5/ADC_SAR.c **** *  int16: This value is measured when the inputs are shorted or connected to
 572:Generated_Source\PSoC5/ADC_SAR.c ****    the same input voltage.
 573:Generated_Source\PSoC5/ADC_SAR.c **** *
 574:Generated_Source\PSoC5/ADC_SAR.c **** * Return:
 575:Generated_Source\PSoC5/ADC_SAR.c **** *  None.
 576:Generated_Source\PSoC5/ADC_SAR.c **** *
 577:Generated_Source\PSoC5/ADC_SAR.c **** * Global Variables:
 578:Generated_Source\PSoC5/ADC_SAR.c **** *  The ADC_SAR_offset variable modified. This variable is used for
 579:Generated_Source\PSoC5/ADC_SAR.c **** *  offset calibration purpose.
 580:Generated_Source\PSoC5/ADC_SAR.c **** *  Affects the ADC_SAR_CountsTo_Volts,
 581:Generated_Source\PSoC5/ADC_SAR.c **** *  ADC_SAR_CountsTo_mVolts, ADC_SAR_CountsTo_uVolts functions
 582:Generated_Source\PSoC5/ADC_SAR.c **** *  by subtracting the given offset.
 583:Generated_Source\PSoC5/ADC_SAR.c **** *
 584:Generated_Source\PSoC5/ADC_SAR.c **** *******************************************************************************/
 585:Generated_Source\PSoC5/ADC_SAR.c **** void ADC_SAR_SetOffset(int16 offset)
 586:Generated_Source\PSoC5/ADC_SAR.c **** {
 587:Generated_Source\PSoC5/ADC_SAR.c ****     ADC_SAR_offset = offset;
 588:Generated_Source\PSoC5/ADC_SAR.c **** }
 589:Generated_Source\PSoC5/ADC_SAR.c **** 
 590:Generated_Source\PSoC5/ADC_SAR.c **** 
 591:Generated_Source\PSoC5/ADC_SAR.c **** /*******************************************************************************
 592:Generated_Source\PSoC5/ADC_SAR.c **** * Function Name: ADC_SAR_CalcGain
 593:Generated_Source\PSoC5/ADC_SAR.c **** ********************************************************************************
 594:Generated_Source\PSoC5/ADC_SAR.c **** *
 595:Generated_Source\PSoC5/ADC_SAR.c **** * Summary:
 596:Generated_Source\PSoC5/ADC_SAR.c **** *  This function calculates the ADC gain in counts per 10 volt.
 597:Generated_Source\PSoC5/ADC_SAR.c **** *
 598:Generated_Source\PSoC5/ADC_SAR.c **** * Parameters:
 599:Generated_Source\PSoC5/ADC_SAR.c **** *  uint8: resolution
 600:Generated_Source\PSoC5/ADC_SAR.c **** *
 601:Generated_Source\PSoC5/ADC_SAR.c **** * Return:
 602:Generated_Source\PSoC5/ADC_SAR.c **** *  None.
ARM GAS  C:\Users\EpikE\AppData\Local\Temp\cc0vK7Q5.s 			page 12


 603:Generated_Source\PSoC5/ADC_SAR.c **** *
 604:Generated_Source\PSoC5/ADC_SAR.c **** * Global Variables:
 605:Generated_Source\PSoC5/ADC_SAR.c **** *  ADC_SAR_shift variable initialized. This variable is used to
 606:Generated_Source\PSoC5/ADC_SAR.c **** *  convert the ADC counts to the 2s compliment form.
 607:Generated_Source\PSoC5/ADC_SAR.c **** *  ADC_SAR_countsPer10Volt variable initialized. This variable is used
 608:Generated_Source\PSoC5/ADC_SAR.c **** *  for gain calibration purpose.
 609:Generated_Source\PSoC5/ADC_SAR.c **** *
 610:Generated_Source\PSoC5/ADC_SAR.c **** *******************************************************************************/
 611:Generated_Source\PSoC5/ADC_SAR.c **** static void ADC_SAR_CalcGain( uint8 resolution )
 612:Generated_Source\PSoC5/ADC_SAR.c **** {
  26              		.loc 1 612 0
  27              		.cfi_startproc
  28              		@ args = 0, pretend = 0, frame = 0
  29              		@ frame_needed = 0, uses_anonymous_args = 0
  30              	.LVL0:
  31 0000 08B5     		push	{r3, lr}
  32              		.cfi_def_cfa_offset 8
  33              		.cfi_offset 3, -8
  34              		.cfi_offset 14, -4
 613:Generated_Source\PSoC5/ADC_SAR.c ****     int32 counts;
 614:Generated_Source\PSoC5/ADC_SAR.c ****     #if(!((ADC_SAR_DEFAULT_RANGE == ADC_SAR__VSS_TO_VREF) || \
 615:Generated_Source\PSoC5/ADC_SAR.c ****          (ADC_SAR_DEFAULT_RANGE == ADC_SAR__VSSA_TO_VDDA) || \
 616:Generated_Source\PSoC5/ADC_SAR.c ****          (ADC_SAR_DEFAULT_RANGE == ADC_SAR__VSSA_TO_VDAC)) )
 617:Generated_Source\PSoC5/ADC_SAR.c ****         uint16 diff_zero;
 618:Generated_Source\PSoC5/ADC_SAR.c ****     #endif /* End ADC_SAR_DEFAULT_RANGE */
 619:Generated_Source\PSoC5/ADC_SAR.c **** 
 620:Generated_Source\PSoC5/ADC_SAR.c ****     switch (resolution)
  35              		.loc 1 620 0
  36 0002 0A28     		cmp	r0, #10
  37 0004 0FD0     		beq	.L7
  38 0006 0C28     		cmp	r0, #12
  39 0008 02D0     		beq	.L4
  40 000a 0828     		cmp	r0, #8
  41 000c 06D1     		bne	.L8
  42 000e 02E0     		b	.L5
  43              	.L4:
 621:Generated_Source\PSoC5/ADC_SAR.c ****     {
 622:Generated_Source\PSoC5/ADC_SAR.c ****         case (uint8)ADC_SAR__BITS_12:
 623:Generated_Source\PSoC5/ADC_SAR.c ****             counts = (int32)ADC_SAR_SAR_WRK_MAX_12BIT;
  44              		.loc 1 623 0
  45 0010 4FF48052 		mov	r2, #4096
  46 0014 09E0     		b	.L3
  47              	.L5:
  48              	.LVL1:
 624:Generated_Source\PSoC5/ADC_SAR.c ****             #if(!((ADC_SAR_DEFAULT_RANGE == ADC_SAR__VSS_TO_VREF) || \
 625:Generated_Source\PSoC5/ADC_SAR.c ****                  (ADC_SAR_DEFAULT_RANGE == ADC_SAR__VSSA_TO_VDDA) || \
 626:Generated_Source\PSoC5/ADC_SAR.c ****                  (ADC_SAR_DEFAULT_RANGE == ADC_SAR__VSSA_TO_VDAC)) )
 627:Generated_Source\PSoC5/ADC_SAR.c ****                 diff_zero = ADC_SAR_SAR_DIFF_SHIFT;
 628:Generated_Source\PSoC5/ADC_SAR.c ****             #endif /* End ADC_SAR_DEFAULT_RANGE */
 629:Generated_Source\PSoC5/ADC_SAR.c ****             break;
 630:Generated_Source\PSoC5/ADC_SAR.c ****         case (uint8)ADC_SAR__BITS_10:
 631:Generated_Source\PSoC5/ADC_SAR.c ****             counts = (int32)ADC_SAR_SAR_WRK_MAX_10BIT;
 632:Generated_Source\PSoC5/ADC_SAR.c ****             #if(!((ADC_SAR_DEFAULT_RANGE == ADC_SAR__VSS_TO_VREF) || \
 633:Generated_Source\PSoC5/ADC_SAR.c ****                  (ADC_SAR_DEFAULT_RANGE == ADC_SAR__VSSA_TO_VDDA) || \
 634:Generated_Source\PSoC5/ADC_SAR.c ****                  (ADC_SAR_DEFAULT_RANGE == ADC_SAR__VSSA_TO_VDAC)) )
 635:Generated_Source\PSoC5/ADC_SAR.c ****                 diff_zero = ADC_SAR_SAR_DIFF_SHIFT >> 2u;
 636:Generated_Source\PSoC5/ADC_SAR.c ****             #endif /* End ADC_SAR_DEFAULT_RANGE */
ARM GAS  C:\Users\EpikE\AppData\Local\Temp\cc0vK7Q5.s 			page 13


 637:Generated_Source\PSoC5/ADC_SAR.c ****             break;
 638:Generated_Source\PSoC5/ADC_SAR.c ****         case (uint8)ADC_SAR__BITS_8:
 639:Generated_Source\PSoC5/ADC_SAR.c ****             counts = (int32)ADC_SAR_SAR_WRK_MAX_8BIT;
  49              		.loc 1 639 0
  50 0016 4FF48072 		mov	r2, #256
 640:Generated_Source\PSoC5/ADC_SAR.c ****             #if(!((ADC_SAR_DEFAULT_RANGE == ADC_SAR__VSS_TO_VREF) || \
 641:Generated_Source\PSoC5/ADC_SAR.c ****                  (ADC_SAR_DEFAULT_RANGE == ADC_SAR__VSSA_TO_VDDA) || \
 642:Generated_Source\PSoC5/ADC_SAR.c ****                  (ADC_SAR_DEFAULT_RANGE == ADC_SAR__VSSA_TO_VDAC)) )
 643:Generated_Source\PSoC5/ADC_SAR.c ****                 diff_zero = ADC_SAR_SAR_DIFF_SHIFT >> 4u;
 644:Generated_Source\PSoC5/ADC_SAR.c ****             #endif /* End ADC_SAR_DEFAULT_RANGE */
 645:Generated_Source\PSoC5/ADC_SAR.c ****             break;
  51              		.loc 1 645 0
  52 001a 06E0     		b	.L3
  53              	.LVL2:
  54              	.L8:
 646:Generated_Source\PSoC5/ADC_SAR.c ****         default: /* Halt CPU in debug mode if resolution is out of valid range */
 647:Generated_Source\PSoC5/ADC_SAR.c ****             counts = 0;
 648:Generated_Source\PSoC5/ADC_SAR.c ****             #if(!((ADC_SAR_DEFAULT_RANGE == ADC_SAR__VSS_TO_VREF) || \
 649:Generated_Source\PSoC5/ADC_SAR.c ****                  (ADC_SAR_DEFAULT_RANGE == ADC_SAR__VSSA_TO_VDDA) || \
 650:Generated_Source\PSoC5/ADC_SAR.c ****                  (ADC_SAR_DEFAULT_RANGE == ADC_SAR__VSSA_TO_VDAC)) )
 651:Generated_Source\PSoC5/ADC_SAR.c ****                 diff_zero = 0u;
 652:Generated_Source\PSoC5/ADC_SAR.c ****             #endif /* End ADC_SAR_DEFAULT_RANGE */
 653:Generated_Source\PSoC5/ADC_SAR.c ****             CYASSERT(0u != 0u);
  55              		.loc 1 653 0
  56 001c 0020     		movs	r0, #0
  57              	.LVL3:
  58 001e FFF7FEFF 		bl	CyHalt
  59              	.LVL4:
 647:Generated_Source\PSoC5/ADC_SAR.c ****             #if(!((ADC_SAR_DEFAULT_RANGE == ADC_SAR__VSS_TO_VREF) || \
  60              		.loc 1 647 0
  61 0022 0022     		movs	r2, #0
  62 0024 01E0     		b	.L3
  63              	.LVL5:
  64              	.L7:
 631:Generated_Source\PSoC5/ADC_SAR.c ****             #if(!((ADC_SAR_DEFAULT_RANGE == ADC_SAR__VSS_TO_VREF) || \
  65              		.loc 1 631 0
  66 0026 4FF48062 		mov	r2, #1024
  67              	.LVL6:
  68              	.L3:
 654:Generated_Source\PSoC5/ADC_SAR.c ****             break;
 655:Generated_Source\PSoC5/ADC_SAR.c ****     }
 656:Generated_Source\PSoC5/ADC_SAR.c ****     ADC_SAR_countsPerVolt = 0; /* Clear obsolete variable */
  69              		.loc 1 656 0
  70 002a 0021     		movs	r1, #0
  71 002c 084B     		ldr	r3, .L10
  72 002e 1980     		strh	r1, [r3]	@ movhi
 657:Generated_Source\PSoC5/ADC_SAR.c ****     /* Calculate gain in counts per 10 volts with rounding */
 658:Generated_Source\PSoC5/ADC_SAR.c ****     ADC_SAR_countsPer10Volt = (((counts * ADC_SAR_10MV_COUNTS) +
  73              		.loc 1 658 0
  74 0030 42F21073 		movw	r3, #10000
  75 0034 03FB02F3 		mul	r3, r3, r2
 659:Generated_Source\PSoC5/ADC_SAR.c ****                         ADC_SAR_DEFAULT_REF_VOLTAGE_MV) / (ADC_SAR_DEFAULT_REF_VOLTAGE_MV * 2));
  76              		.loc 1 659 0
  77 0038 13F58063 		adds	r3, r3, #1024
  78 003c 01D5     		bpl	.L6
  79 003e 03F2FF73 		addw	r3, r3, #2047
  80              	.L6:
ARM GAS  C:\Users\EpikE\AppData\Local\Temp\cc0vK7Q5.s 			page 14


  81 0042 DB12     		asrs	r3, r3, #11
 658:Generated_Source\PSoC5/ADC_SAR.c ****                         ADC_SAR_DEFAULT_REF_VOLTAGE_MV) / (ADC_SAR_DEFAULT_REF_VOLTAGE_MV * 2));
  82              		.loc 1 658 0
  83 0044 034A     		ldr	r2, .L10+4
  84              	.LVL7:
  85 0046 1360     		str	r3, [r2]
 660:Generated_Source\PSoC5/ADC_SAR.c **** 
 661:Generated_Source\PSoC5/ADC_SAR.c ****     #if( (ADC_SAR_DEFAULT_RANGE == ADC_SAR__VSS_TO_VREF) || \
 662:Generated_Source\PSoC5/ADC_SAR.c ****          (ADC_SAR_DEFAULT_RANGE == ADC_SAR__VSSA_TO_VDDA) || \
 663:Generated_Source\PSoC5/ADC_SAR.c ****          (ADC_SAR_DEFAULT_RANGE == ADC_SAR__VSSA_TO_VDAC) )
 664:Generated_Source\PSoC5/ADC_SAR.c ****         ADC_SAR_shift = 0;
  86              		.loc 1 664 0
  87 0048 0022     		movs	r2, #0
  88 004a 034B     		ldr	r3, .L10+8
  89 004c 1A80     		strh	r2, [r3]	@ movhi
  90 004e 08BD     		pop	{r3, pc}
  91              	.L11:
  92              		.align	2
  93              	.L10:
  94 0050 00000000 		.word	ADC_SAR_countsPerVolt
  95 0054 00000000 		.word	ADC_SAR_countsPer10Volt
  96 0058 00000000 		.word	ADC_SAR_shift
  97              		.cfi_endproc
  98              	.LFE10:
  99              		.size	ADC_SAR_CalcGain, .-ADC_SAR_CalcGain
 100              		.section	.text.ADC_SAR_Enable,"ax",%progbits
 101              		.align	2
 102              		.global	ADC_SAR_Enable
 103              		.thumb
 104              		.thumb_func
 105              		.type	ADC_SAR_Enable, %function
 106              	ADC_SAR_Enable:
 107              	.LFB2:
 144:Generated_Source\PSoC5/ADC_SAR.c ****     uint8 tmpReg;
 108              		.loc 1 144 0
 109              		.cfi_startproc
 110              		@ args = 0, pretend = 0, frame = 0
 111              		@ frame_needed = 0, uses_anonymous_args = 0
 112 0000 38B5     		push	{r3, r4, r5, lr}
 113              		.cfi_def_cfa_offset 16
 114              		.cfi_offset 3, -16
 115              		.cfi_offset 4, -12
 116              		.cfi_offset 5, -8
 117              		.cfi_offset 14, -4
 147:Generated_Source\PSoC5/ADC_SAR.c **** 
 118              		.loc 1 147 0
 119 0002 FFF7FEFF 		bl	CyEnterCriticalSection
 120              	.LVL8:
 121 0006 0446     		mov	r4, r0
 122              	.LVL9:
 150:Generated_Source\PSoC5/ADC_SAR.c **** 
 123              		.loc 1 150 0
 124 0008 194A     		ldr	r2, .L14
 125 000a 1378     		ldrb	r3, [r2]	@ zero_extendqisi2
 126 000c 43F00103 		orr	r3, r3, #1
 127 0010 1370     		strb	r3, [r2]
 153:Generated_Source\PSoC5/ADC_SAR.c **** 
ARM GAS  C:\Users\EpikE\AppData\Local\Temp\cc0vK7Q5.s 			page 15


 128              		.loc 1 153 0
 129 0012 1032     		adds	r2, r2, #16
 130 0014 1378     		ldrb	r3, [r2]	@ zero_extendqisi2
 131 0016 43F00103 		orr	r3, r3, #1
 132 001a 1370     		strb	r3, [r2]
 162:Generated_Source\PSoC5/ADC_SAR.c ****     tmpReg |= ADC_SAR_SAR_EN_BUF_VCM_EN;
 133              		.loc 1 162 0
 134 001c 02F5AA52 		add	r2, r2, #5440
 135 0020 0832     		adds	r2, r2, #8
 136 0022 1378     		ldrb	r3, [r2]	@ zero_extendqisi2
 137              	.LVL10:
 169:Generated_Source\PSoC5/ADC_SAR.c ****     #endif /* ADC_SAR_DEFAULT_REFERENCE == ADC_SAR__EXT_REF */
 138              		.loc 1 169 0
 139 0024 43F00303 		orr	r3, r3, #3
 140              	.LVL11:
 171:Generated_Source\PSoC5/ADC_SAR.c **** 
 141              		.loc 1 171 0
 142 0028 1370     		strb	r3, [r2]
 184:Generated_Source\PSoC5/ADC_SAR.c ****         #endif /* ADC_SAR_DEFAULT_REFERENCE == ADC_SAR__INT_REF_NOT_BYPASSED */
 143              		.loc 1 184 0
 144 002a 0422     		movs	r2, #4
 145 002c 114B     		ldr	r3, .L14+4
 146              	.LVL12:
 147 002e 1A70     		strb	r2, [r3]
 148              	.LVL13:
 192:Generated_Source\PSoC5/ADC_SAR.c ****     #endif /* ADC_SAR_HIGH_POWER_PULSE == 0u */
 149              		.loc 1 192 0
 150 0030 013B     		subs	r3, r3, #1
 151 0032 1A78     		ldrb	r2, [r3]	@ zero_extendqisi2
 152 0034 42F04002 		orr	r2, r2, #64
 153 0038 1A70     		strb	r2, [r3]
 202:Generated_Source\PSoC5/ADC_SAR.c ****     #endif /* ADC_SAR_HIGH_POWER_PULSE == 0u */
 154              		.loc 1 202 0
 155 003a 1A78     		ldrb	r2, [r3]	@ zero_extendqisi2
 156 003c 02F0FC02 		and	r2, r2, #252
 157 0040 1A70     		strb	r2, [r3]
 206:Generated_Source\PSoC5/ADC_SAR.c ****     /* SAR_HIZ_CLEAR:   Should not be used for LP */
 158              		.loc 1 206 0
 159 0042 4E22     		movs	r2, #78
 160 0044 053B     		subs	r3, r3, #5
 161 0046 1A70     		strb	r2, [r3]
 218:Generated_Source\PSoC5/ADC_SAR.c **** 
 162              		.loc 1 218 0
 163 0048 0225     		movs	r5, #2
 164 004a A3F59753 		sub	r3, r3, #4832
 165 004e 0C3B     		subs	r3, r3, #12
 166 0050 1D70     		strb	r5, [r3]
 221:Generated_Source\PSoC5/ADC_SAR.c **** 
 167              		.loc 1 221 0
 168 0052 094A     		ldr	r2, .L14+8
 169 0054 1378     		ldrb	r3, [r2]	@ zero_extendqisi2
 170 0056 43F00803 		orr	r3, r3, #8
 171 005a 1370     		strb	r3, [r2]
 223:Generated_Source\PSoC5/ADC_SAR.c **** 
 172              		.loc 1 223 0
 173 005c 0A20     		movs	r0, #10
 174 005e FFF7FEFF 		bl	CyDelayUs
ARM GAS  C:\Users\EpikE\AppData\Local\Temp\cc0vK7Q5.s 			page 16


 175              	.LVL14:
 227:Generated_Source\PSoC5/ADC_SAR.c ****     #endif   /* End ADC_SAR_IRQ_REMOVE */
 176              		.loc 1 227 0
 177 0062 064B     		ldr	r3, .L14+12
 178 0064 1D60     		str	r5, [r3]
 230:Generated_Source\PSoC5/ADC_SAR.c **** }
 179              		.loc 1 230 0
 180 0066 2046     		mov	r0, r4
 181 0068 FFF7FEFF 		bl	CyExitCriticalSection
 182              	.LVL15:
 183 006c 38BD     		pop	{r3, r4, r5, pc}
 184              	.LVL16:
 185              	.L15:
 186 006e 00BF     		.align	2
 187              	.L14:
 188 0070 AB430040 		.word	1073759147
 189 0074 06590040 		.word	1073764614
 190 0078 275B0040 		.word	1073765159
 191 007c 80E200E0 		.word	-536812928
 192              		.cfi_endproc
 193              	.LFE2:
 194              		.size	ADC_SAR_Enable, .-ADC_SAR_Enable
 195              		.section	.text.ADC_SAR_Stop,"ax",%progbits
 196              		.align	2
 197              		.global	ADC_SAR_Stop
 198              		.thumb
 199              		.thumb_func
 200              		.type	ADC_SAR_Stop, %function
 201              	ADC_SAR_Stop:
 202              	.LFB3:
 249:Generated_Source\PSoC5/ADC_SAR.c ****     uint8 enableInterrupts;
 203              		.loc 1 249 0
 204              		.cfi_startproc
 205              		@ args = 0, pretend = 0, frame = 0
 206              		@ frame_needed = 0, uses_anonymous_args = 0
 207 0000 08B5     		push	{r3, lr}
 208              		.cfi_def_cfa_offset 8
 209              		.cfi_offset 3, -8
 210              		.cfi_offset 14, -4
 251:Generated_Source\PSoC5/ADC_SAR.c **** 
 211              		.loc 1 251 0
 212 0002 FFF7FEFF 		bl	CyEnterCriticalSection
 213              	.LVL17:
 254:Generated_Source\PSoC5/ADC_SAR.c ****     /* Disable the SAR ADC block in Active Power Mode */
 214              		.loc 1 254 0
 215 0006 0A4A     		ldr	r2, .L18
 216 0008 1378     		ldrb	r3, [r2]	@ zero_extendqisi2
 217 000a 03F0FE03 		and	r3, r3, #254
 218 000e 1370     		strb	r3, [r2]
 256:Generated_Source\PSoC5/ADC_SAR.c ****     /* Disable the SAR ADC in Standby Power Mode */
 219              		.loc 1 256 0
 220 0010 A2F5AA52 		sub	r2, r2, #5440
 221 0014 153A     		subs	r2, r2, #21
 222 0016 1378     		ldrb	r3, [r2]	@ zero_extendqisi2
 223 0018 03F0FE03 		and	r3, r3, #254
 224 001c 1370     		strb	r3, [r2]
 258:Generated_Source\PSoC5/ADC_SAR.c **** 
ARM GAS  C:\Users\EpikE\AppData\Local\Temp\cc0vK7Q5.s 			page 17


 225              		.loc 1 258 0
 226 001e 1032     		adds	r2, r2, #16
 227 0020 1378     		ldrb	r3, [r2]	@ zero_extendqisi2
 228 0022 03F0FE03 		and	r3, r3, #254
 229 0026 1370     		strb	r3, [r2]
 266:Generated_Source\PSoC5/ADC_SAR.c **** 
 230              		.loc 1 266 0
 231 0028 FFF7FEFF 		bl	CyExitCriticalSection
 232              	.LVL18:
 233 002c 08BD     		pop	{r3, pc}
 234              	.L19:
 235 002e 00BF     		.align	2
 236              	.L18:
 237 0030 00590040 		.word	1073764608
 238              		.cfi_endproc
 239              	.LFE3:
 240              		.size	ADC_SAR_Stop, .-ADC_SAR_Stop
 241              		.section	.text.ADC_SAR_SetPower,"ax",%progbits
 242              		.align	2
 243              		.global	ADC_SAR_SetPower
 244              		.thumb
 245              		.thumb_func
 246              		.type	ADC_SAR_SetPower, %function
 247              	ADC_SAR_SetPower:
 248              	.LFB4:
 291:Generated_Source\PSoC5/ADC_SAR.c ****     uint8 tmpReg;
 249              		.loc 1 291 0
 250              		.cfi_startproc
 251              		@ args = 0, pretend = 0, frame = 0
 252              		@ frame_needed = 0, uses_anonymous_args = 0
 253              		@ link register save eliminated.
 254              	.LVL19:
 295:Generated_Source\PSoC5/ADC_SAR.c **** 
 255              		.loc 1 295 0
 256 0000 00F00300 		and	r0, r0, #3
 257              	.LVL20:
 298:Generated_Source\PSoC5/ADC_SAR.c ****     tmpReg |= (uint8)(power << ADC_SAR_SAR_POWER_SHIFT);
 258              		.loc 1 298 0
 259 0004 034A     		ldr	r2, .L21
 260 0006 1378     		ldrb	r3, [r2]	@ zero_extendqisi2
 261 0008 03F03F03 		and	r3, r3, #63
 262              	.LVL21:
 299:Generated_Source\PSoC5/ADC_SAR.c ****     ADC_SAR_SAR_CSR0_REG = tmpReg;
 263              		.loc 1 299 0
 264 000c 43EA8010 		orr	r0, r3, r0, lsl #6
 265              	.LVL22:
 300:Generated_Source\PSoC5/ADC_SAR.c **** }
 266              		.loc 1 300 0
 267 0010 1070     		strb	r0, [r2]
 268 0012 7047     		bx	lr
 269              	.L22:
 270              		.align	2
 271              	.L21:
 272 0014 00590040 		.word	1073764608
 273              		.cfi_endproc
 274              	.LFE4:
 275              		.size	ADC_SAR_SetPower, .-ADC_SAR_SetPower
ARM GAS  C:\Users\EpikE\AppData\Local\Temp\cc0vK7Q5.s 			page 18


 276              		.section	.text.ADC_SAR_SetResolution,"ax",%progbits
 277              		.align	2
 278              		.global	ADC_SAR_SetResolution
 279              		.thumb
 280              		.thumb_func
 281              		.type	ADC_SAR_SetResolution, %function
 282              	ADC_SAR_SetResolution:
 283              	.LFB5:
 341:Generated_Source\PSoC5/ADC_SAR.c ****     uint8 tmpReg;
 284              		.loc 1 341 0
 285              		.cfi_startproc
 286              		@ args = 0, pretend = 0, frame = 0
 287              		@ frame_needed = 0, uses_anonymous_args = 0
 288              	.LVL23:
 289 0000 10B5     		push	{r4, lr}
 290              		.cfi_def_cfa_offset 8
 291              		.cfi_offset 4, -8
 292              		.cfi_offset 14, -4
 293 0002 0446     		mov	r4, r0
 345:Generated_Source\PSoC5/ADC_SAR.c ****     {
 294              		.loc 1 345 0
 295 0004 0A28     		cmp	r0, #10
 296 0006 0DD0     		beq	.L28
 297 0008 0C28     		cmp	r0, #12
 298 000a 02D0     		beq	.L26
 299 000c 0828     		cmp	r0, #8
 300 000e 04D1     		bne	.L29
 301 0010 01E0     		b	.L27
 302              	.L26:
 348:Generated_Source\PSoC5/ADC_SAR.c ****             break;
 303              		.loc 1 348 0
 304 0012 C422     		movs	r2, #196
 305 0014 07E0     		b	.L25
 306              	.L27:
 307              	.LVL24:
 354:Generated_Source\PSoC5/ADC_SAR.c ****             break;
 308              		.loc 1 354 0
 309 0016 4422     		movs	r2, #68
 355:Generated_Source\PSoC5/ADC_SAR.c ****         default:
 310              		.loc 1 355 0
 311 0018 05E0     		b	.L25
 312              	.LVL25:
 313              	.L29:
 359:Generated_Source\PSoC5/ADC_SAR.c ****             break;
 314              		.loc 1 359 0
 315 001a 0020     		movs	r0, #0
 316              	.LVL26:
 317 001c FFF7FEFF 		bl	CyHalt
 318              	.LVL27:
 357:Generated_Source\PSoC5/ADC_SAR.c ****             /* Halt CPU in debug mode if resolution is out of valid range */
 319              		.loc 1 357 0
 320 0020 C422     		movs	r2, #196
 321 0022 00E0     		b	.L25
 322              	.LVL28:
 323              	.L28:
 351:Generated_Source\PSoC5/ADC_SAR.c ****             break;
 324              		.loc 1 351 0
ARM GAS  C:\Users\EpikE\AppData\Local\Temp\cc0vK7Q5.s 			page 19


 325 0024 8422     		movs	r2, #132
 326              	.LVL29:
 327              	.L25:
 362:Generated_Source\PSoC5/ADC_SAR.c **** 
 328              		.loc 1 362 0
 329 0026 034B     		ldr	r3, .L31
 330 0028 1A70     		strb	r2, [r3]
 365:Generated_Source\PSoC5/ADC_SAR.c **** }
 331              		.loc 1 365 0
 332 002a 2046     		mov	r0, r4
 333 002c FFF7FEFF 		bl	ADC_SAR_CalcGain
 334              	.LVL30:
 335 0030 10BD     		pop	{r4, pc}
 336              	.L32:
 337 0032 00BF     		.align	2
 338              	.L31:
 339 0034 02590040 		.word	1073764610
 340              		.cfi_endproc
 341              	.LFE5:
 342              		.size	ADC_SAR_SetResolution, .-ADC_SAR_SetResolution
 343              		.section	.text.ADC_SAR_Init,"ax",%progbits
 344              		.align	2
 345              		.global	ADC_SAR_Init
 346              		.thumb
 347              		.thumb_func
 348              		.type	ADC_SAR_Init, %function
 349              	ADC_SAR_Init:
 350              	.LFB1:
 107:Generated_Source\PSoC5/ADC_SAR.c **** 
 351              		.loc 1 107 0
 352              		.cfi_startproc
 353              		@ args = 0, pretend = 0, frame = 0
 354              		@ frame_needed = 0, uses_anonymous_args = 0
 355 0000 08B5     		push	{r3, lr}
 356              		.cfi_def_cfa_offset 8
 357              		.cfi_offset 3, -8
 358              		.cfi_offset 14, -4
 116:Generated_Source\PSoC5/ADC_SAR.c ****         (void)CyIntSetVector(ADC_SAR_INTC_NUMBER, &ADC_SAR_ISR);
 359              		.loc 1 116 0
 360 0002 0120     		movs	r0, #1
 361 0004 0721     		movs	r1, #7
 362 0006 FFF7FEFF 		bl	CyIntSetPriority
 363              	.LVL31:
 117:Generated_Source\PSoC5/ADC_SAR.c ****     #endif   /* End ADC_SAR_IRQ_REMOVE */
 364              		.loc 1 117 0
 365 000a 0120     		movs	r0, #1
 366 000c 0749     		ldr	r1, .L35
 367 000e FFF7FEFF 		bl	CyIntSetVector
 368              	.LVL32:
 121:Generated_Source\PSoC5/ADC_SAR.c **** 
 369              		.loc 1 121 0
 370 0012 074A     		ldr	r2, .L35+4
 371 0014 1378     		ldrb	r3, [r2]	@ zero_extendqisi2
 372 0016 43F00603 		orr	r3, r3, #6
 373 001a 1370     		strb	r3, [r2]
 124:Generated_Source\PSoC5/ADC_SAR.c ****     ADC_SAR_offset = 0;
 374              		.loc 1 124 0
ARM GAS  C:\Users\EpikE\AppData\Local\Temp\cc0vK7Q5.s 			page 20


 375 001c 0C20     		movs	r0, #12
 376 001e FFF7FEFF 		bl	ADC_SAR_SetResolution
 377              	.LVL33:
 125:Generated_Source\PSoC5/ADC_SAR.c **** }
 378              		.loc 1 125 0
 379 0022 0022     		movs	r2, #0
 380 0024 034B     		ldr	r3, .L35+8
 381 0026 1A80     		strh	r2, [r3]	@ movhi
 382 0028 08BD     		pop	{r3, pc}
 383              	.L36:
 384 002a 00BF     		.align	2
 385              	.L35:
 386 002c 00000000 		.word	ADC_SAR_ISR
 387 0030 01590040 		.word	1073764609
 388 0034 00000000 		.word	ADC_SAR_offset
 389              		.cfi_endproc
 390              	.LFE1:
 391              		.size	ADC_SAR_Init, .-ADC_SAR_Init
 392              		.section	.text.ADC_SAR_Start,"ax",%progbits
 393              		.align	2
 394              		.global	ADC_SAR_Start
 395              		.thumb
 396              		.thumb_func
 397              		.type	ADC_SAR_Start, %function
 398              	ADC_SAR_Start:
 399              	.LFB0:
  75:Generated_Source\PSoC5/ADC_SAR.c **** 
 400              		.loc 1 75 0
 401              		.cfi_startproc
 402              		@ args = 0, pretend = 0, frame = 0
 403              		@ frame_needed = 0, uses_anonymous_args = 0
 404 0000 08B5     		push	{r3, lr}
 405              		.cfi_def_cfa_offset 8
 406              		.cfi_offset 3, -8
 407              		.cfi_offset 14, -4
  78:Generated_Source\PSoC5/ADC_SAR.c ****     {
 408              		.loc 1 78 0
 409 0002 054B     		ldr	r3, .L40
 410 0004 1B78     		ldrb	r3, [r3]	@ zero_extendqisi2
 411 0006 23B9     		cbnz	r3, .L38
  80:Generated_Source\PSoC5/ADC_SAR.c ****         ADC_SAR_initVar = 1u;
 412              		.loc 1 80 0
 413 0008 FFF7FEFF 		bl	ADC_SAR_Init
 414              	.LVL34:
  81:Generated_Source\PSoC5/ADC_SAR.c ****     }
 415              		.loc 1 81 0
 416 000c 0122     		movs	r2, #1
 417 000e 024B     		ldr	r3, .L40
 418 0010 1A70     		strb	r2, [r3]
 419              	.L38:
  83:Generated_Source\PSoC5/ADC_SAR.c **** }
 420              		.loc 1 83 0
 421 0012 FFF7FEFF 		bl	ADC_SAR_Enable
 422              	.LVL35:
 423 0016 08BD     		pop	{r3, pc}
 424              	.L41:
 425              		.align	2
ARM GAS  C:\Users\EpikE\AppData\Local\Temp\cc0vK7Q5.s 			page 21


 426              	.L40:
 427 0018 00000000 		.word	.LANCHOR0
 428              		.cfi_endproc
 429              	.LFE0:
 430              		.size	ADC_SAR_Start, .-ADC_SAR_Start
 431              		.section	.text.ADC_SAR_IsEndConversion,"ax",%progbits
 432              		.align	2
 433              		.global	ADC_SAR_IsEndConversion
 434              		.thumb
 435              		.thumb_func
 436              		.type	ADC_SAR_IsEndConversion, %function
 437              	ADC_SAR_IsEndConversion:
 438              	.LFB6:
 476:Generated_Source\PSoC5/ADC_SAR.c ****     uint8 status;
 439              		.loc 1 476 0
 440              		.cfi_startproc
 441              		@ args = 0, pretend = 0, frame = 0
 442              		@ frame_needed = 0, uses_anonymous_args = 0
 443              	.LVL36:
 444 0000 10B5     		push	{r4, lr}
 445              		.cfi_def_cfa_offset 8
 446              		.cfi_offset 4, -8
 447              		.cfi_offset 14, -4
 448              	.L44:
 481:Generated_Source\PSoC5/ADC_SAR.c ****     } while ((status != ADC_SAR_SAR_EOF_1) && (retMode == ADC_SAR_WAIT_FOR_RESULT));
 449              		.loc 1 481 0 discriminator 2
 450 0002 074B     		ldr	r3, .L47
 451 0004 1B78     		ldrb	r3, [r3]	@ zero_extendqisi2
 452              	.LVL37:
 482:Generated_Source\PSoC5/ADC_SAR.c ****     /* If convertion complete, wait until EOF bit released */
 453              		.loc 1 482 0 discriminator 2
 454 0006 13F00104 		ands	r4, r3, #1
 455 000a 01D1     		bne	.L43
 482:Generated_Source\PSoC5/ADC_SAR.c ****     /* If convertion complete, wait until EOF bit released */
 456              		.loc 1 482 0 is_stmt 0 discriminator 1
 457 000c 0028     		cmp	r0, #0
 458 000e F8D0     		beq	.L44
 459              	.L43:
 484:Generated_Source\PSoC5/ADC_SAR.c ****     {
 460              		.loc 1 484 0 is_stmt 1
 461 0010 24B1     		cbz	r4, .L45
 487:Generated_Source\PSoC5/ADC_SAR.c ****         /* Do the unconditional read operation of the CSR1 register to make sure the EOC bit has be
 462              		.loc 1 487 0
 463 0012 0120     		movs	r0, #1
 464              	.LVL38:
 465 0014 FFF7FEFF 		bl	CyDelayUs
 466              	.LVL39:
 489:Generated_Source\PSoC5/ADC_SAR.c ****     }
 467              		.loc 1 489 0
 468 0018 014B     		ldr	r3, .L47
 469 001a 1B78     		ldrb	r3, [r3]	@ zero_extendqisi2
 470              	.L45:
 493:Generated_Source\PSoC5/ADC_SAR.c **** 
 471              		.loc 1 493 0
 472 001c 2046     		mov	r0, r4
 473 001e 10BD     		pop	{r4, pc}
 474              	.L48:
ARM GAS  C:\Users\EpikE\AppData\Local\Temp\cc0vK7Q5.s 			page 22


 475              		.align	2
 476              	.L47:
 477 0020 01590040 		.word	1073764609
 478              		.cfi_endproc
 479              	.LFE6:
 480              		.size	ADC_SAR_IsEndConversion, .-ADC_SAR_IsEndConversion
 481              		.section	.text.ADC_SAR_GetResult8,"ax",%progbits
 482              		.align	2
 483              		.global	ADC_SAR_GetResult8
 484              		.thumb
 485              		.thumb_func
 486              		.type	ADC_SAR_GetResult8, %function
 487              	ADC_SAR_GetResult8:
 488              	.LFB7:
 521:Generated_Source\PSoC5/ADC_SAR.c ****     return( (int8)ADC_SAR_SAR_WRK0_REG - (int8)ADC_SAR_shift);
 489              		.loc 1 521 0
 490              		.cfi_startproc
 491              		@ args = 0, pretend = 0, frame = 0
 492              		@ frame_needed = 0, uses_anonymous_args = 0
 493              		@ link register save eliminated.
 522:Generated_Source\PSoC5/ADC_SAR.c **** }
 494              		.loc 1 522 0
 495 0000 034B     		ldr	r3, .L50
 496 0002 1B78     		ldrb	r3, [r3]	@ zero_extendqisi2
 497 0004 034A     		ldr	r2, .L50+4
 498 0006 1088     		ldrh	r0, [r2]
 499 0008 181A     		subs	r0, r3, r0
 523:Generated_Source\PSoC5/ADC_SAR.c **** 
 500              		.loc 1 523 0
 501 000a 40B2     		sxtb	r0, r0
 502 000c 7047     		bx	lr
 503              	.L51:
 504 000e 00BF     		.align	2
 505              	.L50:
 506 0010 A05B0040 		.word	1073765280
 507 0014 00000000 		.word	ADC_SAR_shift
 508              		.cfi_endproc
 509              	.LFE7:
 510              		.size	ADC_SAR_GetResult8, .-ADC_SAR_GetResult8
 511              		.section	.text.ADC_SAR_GetResult16,"ax",%progbits
 512              		.align	2
 513              		.global	ADC_SAR_GetResult16
 514              		.thumb
 515              		.thumb_func
 516              		.type	ADC_SAR_GetResult16, %function
 517              	ADC_SAR_GetResult16:
 518              	.LFB8:
 551:Generated_Source\PSoC5/ADC_SAR.c ****     uint16 res;
 519              		.loc 1 551 0
 520              		.cfi_startproc
 521              		@ args = 0, pretend = 0, frame = 0
 522              		@ frame_needed = 0, uses_anonymous_args = 0
 523              		@ link register save eliminated.
 554:Generated_Source\PSoC5/ADC_SAR.c **** 
 524              		.loc 1 554 0
 525 0000 034B     		ldr	r3, .L53
 526 0002 1B88     		ldrh	r3, [r3]
ARM GAS  C:\Users\EpikE\AppData\Local\Temp\cc0vK7Q5.s 			page 23


 527              	.LVL40:
 556:Generated_Source\PSoC5/ADC_SAR.c **** }
 528              		.loc 1 556 0
 529 0004 034A     		ldr	r2, .L53+4
 530 0006 1088     		ldrh	r0, [r2]
 531 0008 181A     		subs	r0, r3, r0
 557:Generated_Source\PSoC5/ADC_SAR.c **** 
 532              		.loc 1 557 0
 533 000a 00B2     		sxth	r0, r0
 534 000c 7047     		bx	lr
 535              	.L54:
 536 000e 00BF     		.align	2
 537              	.L53:
 538 0010 A05B0040 		.word	1073765280
 539 0014 00000000 		.word	ADC_SAR_shift
 540              		.cfi_endproc
 541              	.LFE8:
 542              		.size	ADC_SAR_GetResult16, .-ADC_SAR_GetResult16
 543              		.section	.text.ADC_SAR_SetOffset,"ax",%progbits
 544              		.align	2
 545              		.global	ADC_SAR_SetOffset
 546              		.thumb
 547              		.thumb_func
 548              		.type	ADC_SAR_SetOffset, %function
 549              	ADC_SAR_SetOffset:
 550              	.LFB9:
 586:Generated_Source\PSoC5/ADC_SAR.c ****     ADC_SAR_offset = offset;
 551              		.loc 1 586 0
 552              		.cfi_startproc
 553              		@ args = 0, pretend = 0, frame = 0
 554              		@ frame_needed = 0, uses_anonymous_args = 0
 555              		@ link register save eliminated.
 556              	.LVL41:
 587:Generated_Source\PSoC5/ADC_SAR.c **** }
 557              		.loc 1 587 0
 558 0000 014B     		ldr	r3, .L56
 559 0002 1880     		strh	r0, [r3]	@ movhi
 560 0004 7047     		bx	lr
 561              	.L57:
 562 0006 00BF     		.align	2
 563              	.L56:
 564 0008 00000000 		.word	ADC_SAR_offset
 565              		.cfi_endproc
 566              	.LFE9:
 567              		.size	ADC_SAR_SetOffset, .-ADC_SAR_SetOffset
 568              		.section	.text.ADC_SAR_SetGain,"ax",%progbits
 569              		.align	2
 570              		.global	ADC_SAR_SetGain
 571              		.thumb
 572              		.thumb_func
 573              		.type	ADC_SAR_SetGain, %function
 574              	ADC_SAR_SetGain:
 575              	.LFB11:
 665:Generated_Source\PSoC5/ADC_SAR.c ****     #else
 666:Generated_Source\PSoC5/ADC_SAR.c ****         ADC_SAR_shift = diff_zero;
 667:Generated_Source\PSoC5/ADC_SAR.c ****     #endif /* End ADC_SAR_DEFAULT_RANGE */
 668:Generated_Source\PSoC5/ADC_SAR.c **** }
ARM GAS  C:\Users\EpikE\AppData\Local\Temp\cc0vK7Q5.s 			page 24


 669:Generated_Source\PSoC5/ADC_SAR.c **** 
 670:Generated_Source\PSoC5/ADC_SAR.c **** 
 671:Generated_Source\PSoC5/ADC_SAR.c **** /*******************************************************************************
 672:Generated_Source\PSoC5/ADC_SAR.c **** * Function Name: ADC_SAR_SetGain
 673:Generated_Source\PSoC5/ADC_SAR.c **** ********************************************************************************
 674:Generated_Source\PSoC5/ADC_SAR.c **** *
 675:Generated_Source\PSoC5/ADC_SAR.c **** * Summary:
 676:Generated_Source\PSoC5/ADC_SAR.c **** *  Sets the ADC gain in counts per volt for the voltage conversion functions
 677:Generated_Source\PSoC5/ADC_SAR.c **** *  that follow. This value is set by default by the reference and input range
 678:Generated_Source\PSoC5/ADC_SAR.c **** *  settings. It should only be used to further calibrate the ADC with a known
 679:Generated_Source\PSoC5/ADC_SAR.c **** *  input or if the ADC is using an external reference.
 680:Generated_Source\PSoC5/ADC_SAR.c **** *
 681:Generated_Source\PSoC5/ADC_SAR.c **** * Parameters:
 682:Generated_Source\PSoC5/ADC_SAR.c **** *  int16 adcGain counts per volt
 683:Generated_Source\PSoC5/ADC_SAR.c **** *
 684:Generated_Source\PSoC5/ADC_SAR.c **** * Return:
 685:Generated_Source\PSoC5/ADC_SAR.c **** *  None.
 686:Generated_Source\PSoC5/ADC_SAR.c **** *
 687:Generated_Source\PSoC5/ADC_SAR.c **** * Global Variables:
 688:Generated_Source\PSoC5/ADC_SAR.c **** *  ADC_SAR_countsPer10Volt variable modified. This variable is used
 689:Generated_Source\PSoC5/ADC_SAR.c **** *  for gain calibration purpose.
 690:Generated_Source\PSoC5/ADC_SAR.c **** *
 691:Generated_Source\PSoC5/ADC_SAR.c **** *******************************************************************************/
 692:Generated_Source\PSoC5/ADC_SAR.c **** void ADC_SAR_SetGain(int16 adcGain)
 693:Generated_Source\PSoC5/ADC_SAR.c **** {
 576              		.loc 1 693 0
 577              		.cfi_startproc
 578              		@ args = 0, pretend = 0, frame = 0
 579              		@ frame_needed = 0, uses_anonymous_args = 0
 580              		@ link register save eliminated.
 581              	.LVL42:
 694:Generated_Source\PSoC5/ADC_SAR.c ****     ADC_SAR_countsPer10Volt = (int32)adcGain * 10;
 582              		.loc 1 694 0
 583 0000 00EB8000 		add	r0, r0, r0, lsl #2
 584              	.LVL43:
 585 0004 4000     		lsls	r0, r0, #1
 586 0006 014B     		ldr	r3, .L59
 587 0008 1860     		str	r0, [r3]
 588 000a 7047     		bx	lr
 589              	.L60:
 590              		.align	2
 591              	.L59:
 592 000c 00000000 		.word	ADC_SAR_countsPer10Volt
 593              		.cfi_endproc
 594              	.LFE11:
 595              		.size	ADC_SAR_SetGain, .-ADC_SAR_SetGain
 596              		.section	.text.ADC_SAR_SetScaledGain,"ax",%progbits
 597              		.align	2
 598              		.global	ADC_SAR_SetScaledGain
 599              		.thumb
 600              		.thumb_func
 601              		.type	ADC_SAR_SetScaledGain, %function
 602              	ADC_SAR_SetScaledGain:
 603              	.LFB12:
 695:Generated_Source\PSoC5/ADC_SAR.c **** }
 696:Generated_Source\PSoC5/ADC_SAR.c **** 
 697:Generated_Source\PSoC5/ADC_SAR.c **** 
ARM GAS  C:\Users\EpikE\AppData\Local\Temp\cc0vK7Q5.s 			page 25


 698:Generated_Source\PSoC5/ADC_SAR.c **** /*******************************************************************************
 699:Generated_Source\PSoC5/ADC_SAR.c **** * Function Name: ADC_SAR_SetScaledGain
 700:Generated_Source\PSoC5/ADC_SAR.c **** ********************************************************************************
 701:Generated_Source\PSoC5/ADC_SAR.c **** *
 702:Generated_Source\PSoC5/ADC_SAR.c **** * Summary:
 703:Generated_Source\PSoC5/ADC_SAR.c **** *  Sets the ADC gain in counts per 10 volt for the voltage conversion functions
 704:Generated_Source\PSoC5/ADC_SAR.c **** *  that follow. This value is set by default by the reference and input range
 705:Generated_Source\PSoC5/ADC_SAR.c **** *  settings. It should only be used to further calibrate the ADC with a known
 706:Generated_Source\PSoC5/ADC_SAR.c **** *  input or if the ADC is using an external reference.
 707:Generated_Source\PSoC5/ADC_SAR.c **** *
 708:Generated_Source\PSoC5/ADC_SAR.c **** * Parameters:
 709:Generated_Source\PSoC5/ADC_SAR.c **** *  int32 adcGain  counts per 10 volt
 710:Generated_Source\PSoC5/ADC_SAR.c **** *
 711:Generated_Source\PSoC5/ADC_SAR.c **** * Return:
 712:Generated_Source\PSoC5/ADC_SAR.c **** *  None.
 713:Generated_Source\PSoC5/ADC_SAR.c **** *
 714:Generated_Source\PSoC5/ADC_SAR.c **** * Global Variables:
 715:Generated_Source\PSoC5/ADC_SAR.c **** *  ADC_SAR_countsPer10Volt variable modified. This variable is used
 716:Generated_Source\PSoC5/ADC_SAR.c **** *  for gain calibration purpose.
 717:Generated_Source\PSoC5/ADC_SAR.c **** *
 718:Generated_Source\PSoC5/ADC_SAR.c **** *******************************************************************************/
 719:Generated_Source\PSoC5/ADC_SAR.c **** void ADC_SAR_SetScaledGain(int32 adcGain)
 720:Generated_Source\PSoC5/ADC_SAR.c **** {
 604              		.loc 1 720 0
 605              		.cfi_startproc
 606              		@ args = 0, pretend = 0, frame = 0
 607              		@ frame_needed = 0, uses_anonymous_args = 0
 608              		@ link register save eliminated.
 609              	.LVL44:
 721:Generated_Source\PSoC5/ADC_SAR.c ****     ADC_SAR_countsPer10Volt = adcGain;
 610              		.loc 1 721 0
 611 0000 014B     		ldr	r3, .L62
 612 0002 1860     		str	r0, [r3]
 613 0004 7047     		bx	lr
 614              	.L63:
 615 0006 00BF     		.align	2
 616              	.L62:
 617 0008 00000000 		.word	ADC_SAR_countsPer10Volt
 618              		.cfi_endproc
 619              	.LFE12:
 620              		.size	ADC_SAR_SetScaledGain, .-ADC_SAR_SetScaledGain
 621              		.section	.text.ADC_SAR_CountsTo_mVolts,"ax",%progbits
 622              		.align	2
 623              		.global	ADC_SAR_CountsTo_mVolts
 624              		.thumb
 625              		.thumb_func
 626              		.type	ADC_SAR_CountsTo_mVolts, %function
 627              	ADC_SAR_CountsTo_mVolts:
 628              	.LFB13:
 722:Generated_Source\PSoC5/ADC_SAR.c **** }
 723:Generated_Source\PSoC5/ADC_SAR.c **** 
 724:Generated_Source\PSoC5/ADC_SAR.c **** 
 725:Generated_Source\PSoC5/ADC_SAR.c **** /*******************************************************************************
 726:Generated_Source\PSoC5/ADC_SAR.c **** * Function Name: ADC_SAR_CountsTo_mVolts
 727:Generated_Source\PSoC5/ADC_SAR.c **** ********************************************************************************
 728:Generated_Source\PSoC5/ADC_SAR.c **** *
 729:Generated_Source\PSoC5/ADC_SAR.c **** * Summary:
ARM GAS  C:\Users\EpikE\AppData\Local\Temp\cc0vK7Q5.s 			page 26


 730:Generated_Source\PSoC5/ADC_SAR.c **** *  Converts the ADC output to millivolts as a 16-bit integer.
 731:Generated_Source\PSoC5/ADC_SAR.c **** *
 732:Generated_Source\PSoC5/ADC_SAR.c **** * Parameters:
 733:Generated_Source\PSoC5/ADC_SAR.c **** *  int16 adcCounts:  Result from the ADC conversion
 734:Generated_Source\PSoC5/ADC_SAR.c **** *
 735:Generated_Source\PSoC5/ADC_SAR.c **** * Return:
 736:Generated_Source\PSoC5/ADC_SAR.c **** *  int16 Result in mVolts
 737:Generated_Source\PSoC5/ADC_SAR.c **** *
 738:Generated_Source\PSoC5/ADC_SAR.c **** * Global Variables:
 739:Generated_Source\PSoC5/ADC_SAR.c **** *  ADC_SAR_offset variable used.
 740:Generated_Source\PSoC5/ADC_SAR.c **** *  ADC_SAR_countsPer10Volt variable used.
 741:Generated_Source\PSoC5/ADC_SAR.c **** *
 742:Generated_Source\PSoC5/ADC_SAR.c **** *******************************************************************************/
 743:Generated_Source\PSoC5/ADC_SAR.c **** int16 ADC_SAR_CountsTo_mVolts(int16 adcCounts)
 744:Generated_Source\PSoC5/ADC_SAR.c **** {
 629              		.loc 1 744 0
 630              		.cfi_startproc
 631              		@ args = 0, pretend = 0, frame = 0
 632              		@ frame_needed = 0, uses_anonymous_args = 0
 633              		@ link register save eliminated.
 634              	.LVL45:
 745:Generated_Source\PSoC5/ADC_SAR.c ****     int16 mVolts;
 746:Generated_Source\PSoC5/ADC_SAR.c ****     int32 countsPer10Volt;
 747:Generated_Source\PSoC5/ADC_SAR.c **** 
 748:Generated_Source\PSoC5/ADC_SAR.c ****     if(ADC_SAR_countsPerVolt != 0)
 635              		.loc 1 748 0
 636 0000 114B     		ldr	r3, .L69
 637 0002 1B88     		ldrh	r3, [r3]
 638 0004 9BB2     		uxth	r3, r3
 639 0006 33B1     		cbz	r3, .L65
 749:Generated_Source\PSoC5/ADC_SAR.c ****     {   /* Support obsolete method */
 750:Generated_Source\PSoC5/ADC_SAR.c ****         countsPer10Volt = (int32)ADC_SAR_countsPerVolt * 10;
 640              		.loc 1 750 0
 641 0008 0F4B     		ldr	r3, .L69
 642 000a 1988     		ldrh	r1, [r3]
 643 000c 09B2     		sxth	r1, r1
 644 000e 01EB8101 		add	r1, r1, r1, lsl #2
 645 0012 4900     		lsls	r1, r1, #1
 646              	.LVL46:
 647 0014 01E0     		b	.L66
 648              	.LVL47:
 649              	.L65:
 751:Generated_Source\PSoC5/ADC_SAR.c ****     }
 752:Generated_Source\PSoC5/ADC_SAR.c ****     else
 753:Generated_Source\PSoC5/ADC_SAR.c ****     {
 754:Generated_Source\PSoC5/ADC_SAR.c ****         countsPer10Volt = ADC_SAR_countsPer10Volt;
 650              		.loc 1 754 0
 651 0016 0D4B     		ldr	r3, .L69+4
 652 0018 1968     		ldr	r1, [r3]
 653              	.LVL48:
 654              	.L66:
 755:Generated_Source\PSoC5/ADC_SAR.c ****     }
 756:Generated_Source\PSoC5/ADC_SAR.c **** 
 757:Generated_Source\PSoC5/ADC_SAR.c ****     /* Subtract ADC offset */
 758:Generated_Source\PSoC5/ADC_SAR.c ****     adcCounts -= ADC_SAR_offset;
 655              		.loc 1 758 0
 656 001a 0D4B     		ldr	r3, .L69+8
ARM GAS  C:\Users\EpikE\AppData\Local\Temp\cc0vK7Q5.s 			page 27


 657 001c 1A88     		ldrh	r2, [r3]
 658 001e 821A     		subs	r2, r0, r2
 659 0020 12B2     		sxth	r2, r2
 660              	.LVL49:
 759:Generated_Source\PSoC5/ADC_SAR.c ****     /* Convert to millivolts with rounding */
 760:Generated_Source\PSoC5/ADC_SAR.c ****     mVolts = (int16)( (( (int32)adcCounts * ADC_SAR_10MV_COUNTS ) + ( (adcCounts > 0) ?
 661              		.loc 1 760 0
 662 0022 42F21070 		movw	r0, #10000
 663 0026 00FB02F0 		mul	r0, r0, r2
 761:Generated_Source\PSoC5/ADC_SAR.c ****                        (countsPer10Volt / 2) : (-(countsPer10Volt / 2)) )) / countsPer10Volt);
 664              		.loc 1 761 0
 665 002a 002A     		cmp	r2, #0
 666 002c 03DD     		ble	.L67
 667              		.loc 1 761 0 is_stmt 0 discriminator 1
 668 002e 01EBD173 		add	r3, r1, r1, lsr #31
 669 0032 5B10     		asrs	r3, r3, #1
 670 0034 03E0     		b	.L68
 671              	.L67:
 672              		.loc 1 761 0 discriminator 2
 673 0036 01EBD172 		add	r2, r1, r1, lsr #31
 674              	.LVL50:
 675 003a 5210     		asrs	r2, r2, #1
 676 003c 5342     		negs	r3, r2
 677              	.L68:
 760:Generated_Source\PSoC5/ADC_SAR.c ****                        (countsPer10Volt / 2) : (-(countsPer10Volt / 2)) )) / countsPer10Volt);
 678              		.loc 1 760 0 is_stmt 1
 679 003e 0344     		add	r3, r3, r0
 680              		.loc 1 761 0
 681 0040 93FBF1F0 		sdiv	r0, r3, r1
 682              	.LVL51:
 762:Generated_Source\PSoC5/ADC_SAR.c **** 
 763:Generated_Source\PSoC5/ADC_SAR.c ****     return( mVolts );
 764:Generated_Source\PSoC5/ADC_SAR.c **** }
 683              		.loc 1 764 0
 684 0044 00B2     		sxth	r0, r0
 685 0046 7047     		bx	lr
 686              	.L70:
 687              		.align	2
 688              	.L69:
 689 0048 00000000 		.word	ADC_SAR_countsPerVolt
 690 004c 00000000 		.word	ADC_SAR_countsPer10Volt
 691 0050 00000000 		.word	ADC_SAR_offset
 692              		.cfi_endproc
 693              	.LFE13:
 694              		.size	ADC_SAR_CountsTo_mVolts, .-ADC_SAR_CountsTo_mVolts
 695              		.global	__aeabi_ldivmod
 696              		.section	.text.ADC_SAR_CountsTo_uVolts,"ax",%progbits
 697              		.align	2
 698              		.global	ADC_SAR_CountsTo_uVolts
 699              		.thumb
 700              		.thumb_func
 701              		.type	ADC_SAR_CountsTo_uVolts, %function
 702              	ADC_SAR_CountsTo_uVolts:
 703              	.LFB14:
 765:Generated_Source\PSoC5/ADC_SAR.c **** 
 766:Generated_Source\PSoC5/ADC_SAR.c **** 
 767:Generated_Source\PSoC5/ADC_SAR.c **** /*******************************************************************************
ARM GAS  C:\Users\EpikE\AppData\Local\Temp\cc0vK7Q5.s 			page 28


 768:Generated_Source\PSoC5/ADC_SAR.c **** * Function Name: ADC_SAR_CountsTo_uVolts
 769:Generated_Source\PSoC5/ADC_SAR.c **** ********************************************************************************
 770:Generated_Source\PSoC5/ADC_SAR.c **** *
 771:Generated_Source\PSoC5/ADC_SAR.c **** * Summary:
 772:Generated_Source\PSoC5/ADC_SAR.c **** *  Converts the ADC output to microvolts as a 32-bit integer.
 773:Generated_Source\PSoC5/ADC_SAR.c **** *
 774:Generated_Source\PSoC5/ADC_SAR.c **** * Parameters:
 775:Generated_Source\PSoC5/ADC_SAR.c **** *  int16 adcCounts: Result from the ADC conversion
 776:Generated_Source\PSoC5/ADC_SAR.c **** *
 777:Generated_Source\PSoC5/ADC_SAR.c **** * Return:
 778:Generated_Source\PSoC5/ADC_SAR.c **** *  int32 Result in micro Volts
 779:Generated_Source\PSoC5/ADC_SAR.c **** *
 780:Generated_Source\PSoC5/ADC_SAR.c **** * Global Variables:
 781:Generated_Source\PSoC5/ADC_SAR.c **** *  ADC_SAR_offset variable used.
 782:Generated_Source\PSoC5/ADC_SAR.c **** *  ADC_SAR_countsPer10Volt used to convert ADC counts to uVolts.
 783:Generated_Source\PSoC5/ADC_SAR.c **** *
 784:Generated_Source\PSoC5/ADC_SAR.c **** *******************************************************************************/
 785:Generated_Source\PSoC5/ADC_SAR.c **** int32 ADC_SAR_CountsTo_uVolts(int16 adcCounts)
 786:Generated_Source\PSoC5/ADC_SAR.c **** {
 704              		.loc 1 786 0
 705              		.cfi_startproc
 706              		@ args = 0, pretend = 0, frame = 0
 707              		@ frame_needed = 0, uses_anonymous_args = 0
 708              	.LVL52:
 709 0000 38B5     		push	{r3, r4, r5, lr}
 710              		.cfi_def_cfa_offset 16
 711              		.cfi_offset 3, -16
 712              		.cfi_offset 4, -12
 713              		.cfi_offset 5, -8
 714              		.cfi_offset 14, -4
 787:Generated_Source\PSoC5/ADC_SAR.c **** 
 788:Generated_Source\PSoC5/ADC_SAR.c ****     int64 uVolts;
 789:Generated_Source\PSoC5/ADC_SAR.c ****     int32 countsPer10Volt;
 790:Generated_Source\PSoC5/ADC_SAR.c **** 
 791:Generated_Source\PSoC5/ADC_SAR.c ****     if(ADC_SAR_countsPerVolt != 0)
 715              		.loc 1 791 0
 716 0002 0D4B     		ldr	r3, .L75
 717 0004 1B88     		ldrh	r3, [r3]
 718 0006 9BB2     		uxth	r3, r3
 719 0008 33B1     		cbz	r3, .L72
 792:Generated_Source\PSoC5/ADC_SAR.c ****     {   /* Support obsolete method */
 793:Generated_Source\PSoC5/ADC_SAR.c ****         countsPer10Volt = (int32)ADC_SAR_countsPerVolt * 10;
 720              		.loc 1 793 0
 721 000a 0B4B     		ldr	r3, .L75
 722 000c 1A88     		ldrh	r2, [r3]
 723 000e 12B2     		sxth	r2, r2
 724 0010 02EB8202 		add	r2, r2, r2, lsl #2
 725 0014 5200     		lsls	r2, r2, #1
 726              	.LVL53:
 727 0016 01E0     		b	.L73
 728              	.LVL54:
 729              	.L72:
 794:Generated_Source\PSoC5/ADC_SAR.c ****     }
 795:Generated_Source\PSoC5/ADC_SAR.c ****     else
 796:Generated_Source\PSoC5/ADC_SAR.c ****     {
 797:Generated_Source\PSoC5/ADC_SAR.c ****         countsPer10Volt = ADC_SAR_countsPer10Volt;
 730              		.loc 1 797 0
ARM GAS  C:\Users\EpikE\AppData\Local\Temp\cc0vK7Q5.s 			page 29


 731 0018 084B     		ldr	r3, .L75+4
 732 001a 1A68     		ldr	r2, [r3]
 733              	.LVL55:
 734              	.L73:
 798:Generated_Source\PSoC5/ADC_SAR.c ****     }
 799:Generated_Source\PSoC5/ADC_SAR.c **** 
 800:Generated_Source\PSoC5/ADC_SAR.c ****     /* Subtract ADC offset */
 801:Generated_Source\PSoC5/ADC_SAR.c ****     adcCounts -= ADC_SAR_offset;
 735              		.loc 1 801 0
 736 001c 084B     		ldr	r3, .L75+8
 737 001e 1C88     		ldrh	r4, [r3]
 738              	.LVL56:
 802:Generated_Source\PSoC5/ADC_SAR.c ****     /* To convert adcCounts to microVolts it is required to be multiplied
 803:Generated_Source\PSoC5/ADC_SAR.c ****     *  on 10 million and later divide on gain in counts per 10V.
 804:Generated_Source\PSoC5/ADC_SAR.c ****     */
 805:Generated_Source\PSoC5/ADC_SAR.c ****     uVolts = (( (int64)adcCounts * ADC_SAR_10UV_COUNTS ) / countsPer10Volt);
 739              		.loc 1 805 0
 740 0020 041B     		subs	r4, r0, r4
 741              	.LVL57:
 742 0022 24B2     		sxth	r4, r4
 743 0024 E517     		asrs	r5, r4, #31
 744 0026 074B     		ldr	r3, .L75+12
 745 0028 A4FB0301 		umull	r0, r1, r4, r3
 746 002c 03FB0511 		mla	r1, r3, r5, r1
 747 0030 D317     		asrs	r3, r2, #31
 748 0032 FFF7FEFF 		bl	__aeabi_ldivmod
 749              	.LVL58:
 806:Generated_Source\PSoC5/ADC_SAR.c **** 
 807:Generated_Source\PSoC5/ADC_SAR.c ****     return( uVolts );
 808:Generated_Source\PSoC5/ADC_SAR.c **** }
 750              		.loc 1 808 0
 751 0036 38BD     		pop	{r3, r4, r5, pc}
 752              	.L76:
 753              		.align	2
 754              	.L75:
 755 0038 00000000 		.word	ADC_SAR_countsPerVolt
 756 003c 00000000 		.word	ADC_SAR_countsPer10Volt
 757 0040 00000000 		.word	ADC_SAR_offset
 758 0044 80969800 		.word	10000000
 759              		.cfi_endproc
 760              	.LFE14:
 761              		.size	ADC_SAR_CountsTo_uVolts, .-ADC_SAR_CountsTo_uVolts
 762              		.global	__aeabi_i2f
 763              		.global	__aeabi_fmul
 764              		.global	__aeabi_fdiv
 765              		.section	.text.ADC_SAR_CountsTo_Volts,"ax",%progbits
 766              		.align	2
 767              		.global	ADC_SAR_CountsTo_Volts
 768              		.thumb
 769              		.thumb_func
 770              		.type	ADC_SAR_CountsTo_Volts, %function
 771              	ADC_SAR_CountsTo_Volts:
 772              	.LFB15:
 809:Generated_Source\PSoC5/ADC_SAR.c **** 
 810:Generated_Source\PSoC5/ADC_SAR.c **** 
 811:Generated_Source\PSoC5/ADC_SAR.c **** /*******************************************************************************
 812:Generated_Source\PSoC5/ADC_SAR.c **** * Function Name: ADC_SAR_CountsTo_Volts
ARM GAS  C:\Users\EpikE\AppData\Local\Temp\cc0vK7Q5.s 			page 30


 813:Generated_Source\PSoC5/ADC_SAR.c **** ********************************************************************************
 814:Generated_Source\PSoC5/ADC_SAR.c **** *
 815:Generated_Source\PSoC5/ADC_SAR.c **** * Summary:
 816:Generated_Source\PSoC5/ADC_SAR.c **** *  Converts the ADC output to volts as a floating-point number.
 817:Generated_Source\PSoC5/ADC_SAR.c **** *
 818:Generated_Source\PSoC5/ADC_SAR.c **** * Parameters:
 819:Generated_Source\PSoC5/ADC_SAR.c **** *  int16 adcCounts: Result from the ADC conversion
 820:Generated_Source\PSoC5/ADC_SAR.c **** *
 821:Generated_Source\PSoC5/ADC_SAR.c **** * Return:
 822:Generated_Source\PSoC5/ADC_SAR.c **** *  float Result in Volts
 823:Generated_Source\PSoC5/ADC_SAR.c **** *
 824:Generated_Source\PSoC5/ADC_SAR.c **** * Global Variables:
 825:Generated_Source\PSoC5/ADC_SAR.c **** *  ADC_SAR_offset variable used.
 826:Generated_Source\PSoC5/ADC_SAR.c **** *  ADC_SAR_countsPer10Volt used to convert ADC counts to Volts.
 827:Generated_Source\PSoC5/ADC_SAR.c **** *
 828:Generated_Source\PSoC5/ADC_SAR.c **** *******************************************************************************/
 829:Generated_Source\PSoC5/ADC_SAR.c **** float32 ADC_SAR_CountsTo_Volts(int16 adcCounts)
 830:Generated_Source\PSoC5/ADC_SAR.c **** {
 773              		.loc 1 830 0
 774              		.cfi_startproc
 775              		@ args = 0, pretend = 0, frame = 0
 776              		@ frame_needed = 0, uses_anonymous_args = 0
 777              	.LVL59:
 778 0000 38B5     		push	{r3, r4, r5, lr}
 779              		.cfi_def_cfa_offset 16
 780              		.cfi_offset 3, -16
 781              		.cfi_offset 4, -12
 782              		.cfi_offset 5, -8
 783              		.cfi_offset 14, -4
 831:Generated_Source\PSoC5/ADC_SAR.c ****     float32 volts;
 832:Generated_Source\PSoC5/ADC_SAR.c ****     int32 countsPer10Volt;
 833:Generated_Source\PSoC5/ADC_SAR.c **** 
 834:Generated_Source\PSoC5/ADC_SAR.c ****     if(ADC_SAR_countsPerVolt != 0)
 784              		.loc 1 834 0
 785 0002 0F4B     		ldr	r3, .L81
 786 0004 1B88     		ldrh	r3, [r3]
 787 0006 9BB2     		uxth	r3, r3
 788 0008 33B1     		cbz	r3, .L78
 835:Generated_Source\PSoC5/ADC_SAR.c ****     {   /* Support obsolete method */
 836:Generated_Source\PSoC5/ADC_SAR.c ****         countsPer10Volt = (int32)ADC_SAR_countsPerVolt * 10;
 789              		.loc 1 836 0
 790 000a 0D4B     		ldr	r3, .L81
 791 000c 1C88     		ldrh	r4, [r3]
 792 000e 24B2     		sxth	r4, r4
 793 0010 04EB8404 		add	r4, r4, r4, lsl #2
 794 0014 6400     		lsls	r4, r4, #1
 795              	.LVL60:
 796 0016 01E0     		b	.L79
 797              	.LVL61:
 798              	.L78:
 837:Generated_Source\PSoC5/ADC_SAR.c ****     }
 838:Generated_Source\PSoC5/ADC_SAR.c ****     else
 839:Generated_Source\PSoC5/ADC_SAR.c ****     {
 840:Generated_Source\PSoC5/ADC_SAR.c ****         countsPer10Volt = ADC_SAR_countsPer10Volt;
 799              		.loc 1 840 0
 800 0018 0A4B     		ldr	r3, .L81+4
 801 001a 1C68     		ldr	r4, [r3]
ARM GAS  C:\Users\EpikE\AppData\Local\Temp\cc0vK7Q5.s 			page 31


 802              	.LVL62:
 803              	.L79:
 841:Generated_Source\PSoC5/ADC_SAR.c ****     }
 842:Generated_Source\PSoC5/ADC_SAR.c **** 
 843:Generated_Source\PSoC5/ADC_SAR.c ****     /* Subtract ADC offset */
 844:Generated_Source\PSoC5/ADC_SAR.c ****     adcCounts -= ADC_SAR_offset;
 804              		.loc 1 844 0
 805 001c 0A4B     		ldr	r3, .L81+8
 806 001e 1B88     		ldrh	r3, [r3]
 807 0020 C01A     		subs	r0, r0, r3
 808              	.LVL63:
 845:Generated_Source\PSoC5/ADC_SAR.c **** 
 846:Generated_Source\PSoC5/ADC_SAR.c ****     volts = ((float32)adcCounts * ADC_SAR_10V_COUNTS) / (float32)countsPer10Volt;
 809              		.loc 1 846 0
 810 0022 00B2     		sxth	r0, r0
 811 0024 FFF7FEFF 		bl	__aeabi_i2f
 812              	.LVL64:
 813 0028 0849     		ldr	r1, .L81+12
 814 002a FFF7FEFF 		bl	__aeabi_fmul
 815              	.LVL65:
 816 002e 0546     		mov	r5, r0
 817 0030 2046     		mov	r0, r4
 818 0032 FFF7FEFF 		bl	__aeabi_i2f
 819              	.LVL66:
 820 0036 0146     		mov	r1, r0
 821 0038 2846     		mov	r0, r5
 822 003a FFF7FEFF 		bl	__aeabi_fdiv
 823              	.LVL67:
 847:Generated_Source\PSoC5/ADC_SAR.c **** 
 848:Generated_Source\PSoC5/ADC_SAR.c ****     return( volts );
 849:Generated_Source\PSoC5/ADC_SAR.c **** }
 824              		.loc 1 849 0
 825 003e 38BD     		pop	{r3, r4, r5, pc}
 826              	.LVL68:
 827              	.L82:
 828              		.align	2
 829              	.L81:
 830 0040 00000000 		.word	ADC_SAR_countsPerVolt
 831 0044 00000000 		.word	ADC_SAR_countsPer10Volt
 832 0048 00000000 		.word	ADC_SAR_offset
 833 004c 00002041 		.word	1092616192
 834              		.cfi_endproc
 835              	.LFE15:
 836              		.size	ADC_SAR_CountsTo_Volts, .-ADC_SAR_CountsTo_Volts
 837              		.comm	ADC_SAR_shift,2,2
 838              		.comm	ADC_SAR_countsPer10Volt,4,4
 839              		.comm	ADC_SAR_countsPerVolt,2,2
 840              		.comm	ADC_SAR_offset,2,2
 841              		.global	ADC_SAR_initVar
 842              		.bss
 843              		.set	.LANCHOR0,. + 0
 844              		.type	ADC_SAR_initVar, %object
 845              		.size	ADC_SAR_initVar, 1
 846              	ADC_SAR_initVar:
 847 0000 00       		.space	1
 848              		.text
 849              	.Letext0:
ARM GAS  C:\Users\EpikE\AppData\Local\Temp\cc0vK7Q5.s 			page 32


 850              		.file 2 "Generated_Source\\PSoC5\\cytypes.h"
 851              		.file 3 "Generated_Source\\PSoC5\\CyLib.h"